(dp0
S'fawn'
p1
I0
sS'four'
p2
I1
sS'woods'
p3
I18
sS'hanging'
p4
I24
sS'woody'
p5
I4
sS'marching'
p6
I5
sS'electricity'
p7
I6
sS'lord'
p8
I7
sS'swivel'
p9
I8
sS'deli'
p10
I9
sS'regional'
p11
I10
sS'dell'
p12
I11
sS'fur'
p13
I5521
sS'basics'
p14
I13
sS'scholar'
p15
I140
sS'wooden'
p16
I15
sS'wednesday'
p17
I16
sS'viable'
p18
I17
sS'jihad'
p19
I2
sS'crotch'
p20
I19
sS'charter'
p21
I20
sS'maneuver'
p22
I21
sS'corvette'
p23
I22
sS'miller'
p24
I23
sS'railing'
p25
I3
sS'bacon'
p26
I25
sS'tires'
p27
I26
sS'elegant'
p28
I27
sS'second'
p29
I28
sS'crutch'
p30
I5526
sS'blouse'
p31
I30
sS'federal'
p32
I7037
sS'thunder'
p33
I31
sS'boogie'
p34
I253
sS'hp'
p35
I8087
sS'fingers'
p36
I33
sS'fossil'
p37
I34
sS'increasing'
p38
I35
sS'specialist'
p39
I36
sS'hero'
p40
I37
sS'reporter'
p41
I38
sS'error'
p42
I1381
sS'dory'
p43
I40
sS'here'
p44
I310
sS'herd'
p45
I42
sS'reported'
p46
I43
sS'china'
p47
I44
sS'dogwood'
p48
I45
sS'dorm'
p49
I46
sS'affiliated'
p50
I47
sS'kids'
p51
I48
sS'k'
p52
I49
sS'reports'
p53
I50
sS'controversy'
p54
I51
sS'obituaries'
p55
I6894
sS'military'
p56
I53
sS'climber'
p57
I54
sS'brownsville'
p58
I55
sS'golden'
p59
I56
sS'replace'
p60
I57
sS'brought'
p61
I58
sS'remnant'
p62
I59
sS'stern'
p63
I60
sS'unit'
p64
I61
sS'dna'
p65
I62
sS'spoke'
p66
I63
sS'catchy'
p67
I64
sS'cannibal'
p68
I65
sS'symphony'
p69
I66
sS'music'
p70
I67
sS'chinchilla'
p71
I68
sS'passport'
p72
I69
sS'strike'
p73
I70
sS'marchers'
p74
I71
sS'until'
p75
I72
sS'playboy'
p76
I73
sS'relay'
p77
I74
sS'successful'
p78
I75
sS'yahoo'
p79
I76
sS'hurt'
p80
I77
sS'glass'
p81
I78
sS'hole'
p82
I79
sS'hold'
p83
I80
sS'locked'
p84
I81
sS'blade'
p85
I83
sS'locker'
p86
I84
sS'revenues'
p87
I85
sS'wand'
p88
I86
sS'artillery'
p89
I87
sS'dragons'
p90
I88
sS'currency'
p91
I89
sS'caution'
p92
I90
sS'want'
p93
I91
sS'organizer'
p94
I92
sS'cookery'
p95
I93
sS'absolute'
p96
I94
sS'hog'
p97
I95
sS'hoe'
p98
I96
sS'hob'
p99
I97
sS'travel'
p100
I98
sS'feature'
p101
I99
sS'machine'
p102
I100
sS'how'
p103
I101
sS'hot'
p104
I102
sS'hos'
p105
I103
sS'hop'
p106
I104
sS'cheetah'
p107
I105
sS'paste'
p108
I8289
sS'beauty'
p109
I106
sS'cuisine'
p110
I107
sS'diagram'
p111
I108
sS'dinosaurs'
p112
I109
sS'wrong'
p113
I110
sS'promotion'
p114
I111
sS'types'
p115
I112
sS'effective'
p116
I113
sS'wins'
p117
I114
sS'alias'
p118
I115
sS'keeps'
p119
I116
sS'democratic'
p120
I117
sS'wing'
p121
I118
sS'wind'
p122
I119
sS'wine'
p123
I120
sS'feedback'
p124
I121
sS'handcuff'
p125
I122
sS'fidelity'
p126
I123
sS'fit'
p127
I124
sS'lifeline'
p128
I125
sS'rankings'
p129
I126
sS'backpack'
p130
I127
sS'fig'
p131
I128
sS'wales'
p132
I129
sS'hidden'
p133
I130
sS'fin'
p134
I131
sS'easier'
p135
I132
sS'duvet'
p136
I133
sS'enrich'
p137
I134
sS'educating'
p138
I135
sS'effects'
p139
I136
sS'interrupt'
p140
I137
sS'township'
p141
I138
sS'silver'
p142
I139
sS'prize'
p143
I14
sS'vipers'
p144
I141
sS'naturalist'
p145
I4084
sS'arrow'
p146
I143
sS'volcano'
p147
I144
sS'windmill'
p148
I5543
sS'financial'
p149
I146
sS'telescope'
p150
I147
sS'series'
p151
I148
sS'spider'
p152
I149
sS'bowls'
p153
I150
sS'satchel'
p154
I151
sS'cathedral'
p155
I152
sS'whit'
p156
I153
sS'ring'
p157
I154
sS'whip'
p158
I155
sS'rv'
p159
I156
sS'won'
p160
I157
sS'smirk'
p161
I158
sS'ha'
p162
I8112
sS'mason'
p163
I159
sS'rd'
p164
I160
sS're'
p165
I161
sS'encourage'
p166
I1048
sS'rc'
p167
I163
sS'foundation'
p168
I164
sS'pumpkins'
p169
I165
sS'grapes'
p170
I166
sS'crowned'
p171
I167
sS'knit'
p172
I168
sS'jugs'
p173
I169
sS'shelves'
p174
I170
sS'pentagram'
p175
I4089
sS'diabetic'
p176
I1137
sS'kashmir'
p177
I173
sS'silicon'
p178
I174
sS'disturbed'
p179
I175
sS'dentures'
p180
I176
sS'purpose'
p181
I5550
sS'shopper'
p182
I178
sS'channels'
p183
I179
sS'wash'
p184
I180
sS'spinning'
p185
I181
sS'millers'
p186
I182
sS'niger'
p187
I183
sS'clarity'
p188
I184
sS'basketball'
p189
I185
sS'service'
p190
I186
sS'engagement'
p191
I187
sS'assort'
p192
I6919
sS'ruins'
p193
I6488
sS'master'
p194
I189
sS'architect'
p195
I7530
sS'gilbert'
p196
I190
sS'legs'
p197
I191
sS'bitter'
p198
I192
sS'genesis'
p199
I193
sS'listen'
p200
I194
sS'rewards'
p201
I195
sS'cushions'
p202
I196
sS'bounty'
p203
I6921
sS'wisdom'
p204
I198
sS'task'
p205
I5556
sS'sulphur'
p206
I200
sS'crawl'
p207
I201
sS'freemen'
p208
I202
sS'trek'
p209
I203
sS'handcuffs'
p210
I204
sS'tree'
p211
I205
sS'rusty'
p212
I206
sS'nations'
p213
I207
sS'project'
p214
I208
sS'zounds'
p215
I209
sS'feeling'
p216
I210
sS'acquisition'
p217
I211
sS'acclaim'
p218
I212
sS'longs'
p219
I213
sS'boston'
p220
I214
sS'paddles'
p221
I215
sS'spectrum'
p222
I216
sS'shrubs'
p223
I217
sS'dozen'
p224
I218
sS'courier'
p225
I219
sS'concrete'
p226
I220
sS'responsible'
p227
I221
sS'racers'
p228
I222
sS'recommended'
p229
I223
sS'doors'
p230
I224
sS'indite'
p231
I225
sS'crossbones'
p232
I226
sS'shall'
p233
I227
sS'huh'
p234
I6930
sS'mystique'
p235
I229
sS'victoria'
p236
I230
sS'simplify'
p237
I231
sS'mouth'
p238
I232
sS'cummings'
p239
I233
sS'letter'
p240
I234
sS'organization'
p241
I235
sS'thriller'
p242
I236
sS'morality'
p243
I237
sS'bradford'
p244
I238
sS'dummy'
p245
I239
sS'singer'
p246
I240
sS'episode'
p247
I241
sS'released'
p248
I6932
sS'grove'
p249
I243
sS'professor'
p250
I244
sS'camp'
p251
I245
sS'rotary'
p252
I246
sS'bodybuilder'
p253
I247
sS'tech'
p254
I248
sS'scream'
p255
I250
sS'came'
p256
I251
sS'advisory'
p257
I252
sS'cooking'
p258
I32
sS'bomb'
p259
I254
sS'reactor'
p260
I255
sS'insects'
p261
I256
sS'tequila'
p262
I257
sS'advisors'
p263
I258
sS'gauge'
p264
I259
sS'hungary'
p265
I260
sS'recliner'
p266
I261
sS'lessons'
p267
I262
sS'busy'
p268
I263
sS'menu'
p269
I264
sS'bust'
p270
I265
sS'cougar'
p271
I266
sS'bush'
p272
I267
sS'rick'
p273
I268
sS'rich'
p274
I269
sS'longhorn'
p275
I270
sS'rice'
p276
I271
sS'plate'
p277
I272
sS'lanai'
p278
I274
sS'plato'
p279
I275
sS'pocket'
p280
I276
sS'cushion'
p281
I277
sS'fetish'
p282
I4109
sS'relish'
p283
I279
sS'jaguar'
p284
I280
sS'tights'
p285
I281
sS'patch'
p286
I282
sS'piggy'
p287
I283
sS'traverse'
p288
I284
sS'leasing'
p289
I285
sS'disaster'
p290
I286
sS'fair'
p291
I287
sS'branding'
p292
I288
sS'radius'
p293
I289
sS'cloning'
p294
I290
sS'crouch'
p295
I291
sS'fain'
p296
I292
sS'clef'
p297
I293
sS'best'
p298
I294
sS'oceania'
p299
I295
sS'lots'
p300
I296
sS'sombrero'
p301
I297
sS'irs'
p302
I298
sS'rings'
p303
I299
sS'stamps'
p304
I300
sS'score'
p305
I301
sS'yogurt'
p306
I302
sS'ira'
p307
I303
sS'pirate'
p308
I304
sS'claws'
p309
I305
sS'never'
p310
I4113
sS'nature'
p311
I307
sS'rolled'
p312
I308
sS'personalize'
p313
I309
sS'affiliates'
p314
I41
sS'wheelbarrow'
p315
I311
sS'carbon'
p316
I312
sS'atoms'
p317
I313
sS'roller'
p318
I314
sS'accident'
p319
I315
sS'veep'
p320
I316
sS'country'
p321
I317
sS'adapter'
p322
I318
sS'adventures'
p323
I319
sS'askew'
p324
I320
sS'planned'
p325
I321
sS'logic'
p326
I322
sS'genus'
p327
I323
sS'asked'
p328
I324
sS'mosses'
p329
I326
sS'gopher'
p330
I327
sS'cult'
p331
I328
sS'canyon'
p332
I329
sS'blonde'
p333
I330
sS'godhead'
p334
I331
sS'lighthouse'
p335
I332
sS'union'
p336
I333
sS'fri'
p337
I334
sS'fro'
p338
I335
sS'twain'
p339
I336
sS'much'
p340
I337
sS'stadium'
p341
I338
sS'privilege'
p342
I339
sS'fry'
p343
I340
sS'dots'
p344
I341
sS'life'
p345
I342
sS'crying'
p346
I343
sS'spit'
p347
I344
sS'eastern'
p348
I345
sS'worker'
p349
I346
sS'irving'
p350
I347
sS'irvine'
p351
I348
sS'circumcision'
p352
I5578
sS'joust'
p353
I350
sS'lift'
p354
I351
sS'child'
p355
I352
sS'chili'
p356
I353
sS'spin'
p357
I354
sS'chill'
p358
I2090
sS'commerce'
p359
I356
sS'presidency'
p360
I357
sS'castro'
p361
I358
sS'calcium'
p362
I359
sS'arachnid'
p363
I6949
sS'skirts'
p364
I361
sS'played'
p365
I362
sS'equator'
p366
I363
sS'delicatessen'
p367
I364
sS'player'
p368
I365
sS'eighteen'
p369
I366
sS'violin'
p370
I2169
sS'crusaders'
p371
I368
sS'memorial'
p372
I369
sS'things'
p373
I370
sS'toaster'
p374
I371
sS'harmony'
p375
I2212
sS'babies'
p376
I373
sS'european'
p377
I374
sS'voyager'
p378
I375
sS'pontiac'
p379
I376
sS'tops'
p380
I377
sS'workforce'
p381
I378
sS'disney'
p382
I6226
sS'angling'
p383
I379
sS'supper'
p384
I380
sS'tuna'
p385
I381
sS'bonny'
p386
I382
sS'academic'
p387
I383
sS'corporate'
p388
I385
sS'plaque'
p389
I386
sS'boyhood'
p390
I387
sS'capitol'
p391
I388
sS'plight'
p392
I389
sS'caregiver'
p393
I390
sS'lasso'
p394
I391
sS'hah'
p395
I392
sS'handshake'
p396
I393
sS'spectacles'
p397
I2373
sS'sciences'
p398
I395
sS'had'
p399
I396
sS'hay'
p400
I397
sS'collections'
p401
I398
sS'innocent'
p402
I399
sS'prison'
p403
I400
sS'has'
p404
I2407
sS'hat'
p405
I402
sS'elevation'
p406
I403
sS'quirk'
p407
I404
sS'nazareth'
p408
I6961
sS'possible'
p409
I406
sS'birth'
p410
I407
sS'shadow'
p411
I408
sS'unique'
p412
I409
sS'desire'
p413
I410
sS'bobby'
p414
I411
sS'diffraction'
p415
I413
sS'pavement'
p416
I414
sS'steps'
p417
I415
sS'battlefield'
p418
I416
sS'right'
p419
I417
sS'old'
p420
I418
sS'creek'
p421
I419
sS'crowd'
p422
I420
sS'people'
p423
I421
sS'czech'
p424
I422
sS'crown'
p425
I423
sS'billboard'
p426
I424
sS'multiple'
p427
I6968
sS'for'
p428
I426
sS'bottom'
p429
I427
sS'creative'
p430
I428
sS'ruffles'
p431
I429
sS'fog'
p432
I430
sS'shaker'
p433
I432
sS'energy'
p434
I7240
sS'dental'
p435
I434
sS'rhone'
p436
I435
sS'memorable'
p437
I436
sS'slither'
p438
I437
sS'benches'
p439
I438
sS'filipino'
p440
I439
sS'dollars'
p441
I440
sS'o'
p442
I441
sS'browse'
p443
I442
sS'driveway'
p444
I6942
sS'consulting'
p445
I443
sS'sob'
p446
I444
sS'rotations'
p447
I445
sS'mba'
p448
I446
sS'son'
p449
I447
sS'sos'
p450
I448
sS'daffy'
p451
I449
sS'magazines'
p452
I450
sS'soy'
p453
I451
sS'reducing'
p454
I452
sS'fabric'
p455
I453
sS'panorama'
p456
I454
sS'support'
p457
I455
sS'width'
p458
I456
sS'joseph'
p459
I457
sS'authorized'
p460
I458
sS'overhead'
p461
I4144
sS'halls'
p462
I460
sS'happy'
p463
I461
sS'offer'
p464
I462
sS'tigers'
p465
I463
sS'otter'
p466
I464
sS'duel'
p467
I466
sS'genealogy'
p468
I467
sS'inside'
p469
I468
sS'devices'
p470
I469
sS'pest'
p471
I470
sS'mighty'
p472
I471
sS'duet'
p473
I472
sS'passenger'
p474
I473
sS'proud'
p475
I6982
sS'disgrace'
p476
I475
sS'sight'
p477
I476
sS'tournament'
p478
I477
sS'proven'
p479
I478
sS'somebody'
p480
I7451
sS'accounting'
p481
I479
sS'dealer'
p482
I480
sS'triangles'
p483
I481
sS'breeders'
p484
I482
sS'dotted'
p485
I483
sS'floor'
p486
I484
sS'glacier'
p487
I485
sS'cambodia'
p488
I486
sS'flood'
p489
I487
sS'republic'
p490
I488
sS'sunset'
p491
I489
sS'developers'
p492
I490
sS'smell'
p493
I491
sS'roll'
p494
I492
sS'woodman'
p495
I493
sS'palms'
p496
I494
sS'models'
p497
I495
sS'rolling'
p498
I496
sS'jitterbug'
p499
I5615
sS'shootout'
p500
I498
sS'spades'
p501
I499
sS'broadband'
p502
I500
sS'time'
p503
I501
sS'push'
p504
I502
sS'conferred'
p505
I503
sS'gown'
p506
I504
sS'furry'
p507
I6594
sS'chain'
p508
I505
sS'reviewers'
p509
I506
sS'viaduct'
p510
I507
sS'crocodile'
p511
I508
sS'skate'
p512
I509
sS'skiing'
p513
I510
sS'chair'
p514
I511
sS'vet'
p515
I512
sS'crates'
p516
I513
sS'crater'
p517
I514
sS'veg'
p518
I515
sS'bicycles'
p519
I516
sS'connecting'
p520
I5624
sS'veterans'
p521
I518
sS'dragonfly'
p522
I519
sS'icing'
p523
I520
sS'prepaid'
p524
I521
sS'cheap'
p525
I6992
sS'refinance'
p526
I523
sS'choice'
p527
I524
sS'stays'
p528
I525
sS'overstock'
p529
I526
sS'minute'
p530
I527
sS'cooks'
p531
I528
sS'epic'
p532
I5628
sS'tricycle'
p533
I530
sS'tear'
p534
I531
sS'leave'
p535
I532
sS'subway'
p536
I533
sS'teal'
p537
I534
sS'team'
p538
I535
sS'skewer'
p539
I536
sS'bonfire'
p540
I538
sS'prevent'
p541
I539
sS'bulldozer'
p542
I540
sS'attic'
p543
I541
sS'steaks'
p544
I542
sS'erotic'
p545
I543
sS'shirts'
p546
I545
sS'headset'
p547
I546
sS'educate'
p548
I547
sS'crackpot'
p549
I548
sS'melt'
p550
I549
sS'current'
p551
I550
sS'falling'
p552
I551
sS'celebrates'
p553
I552
sS'honour'
p554
I553
sS'funeral'
p555
I554
sS'snack'
p556
I555
sS'address'
p557
I556
sS'alone'
p558
I557
sS'along'
p559
I558
sS'gulf'
p560
I6999
sS'interests'
p561
I560
sS'dusty'
p562
I561
sS'funded'
p563
I562
sS'accomplished'
p564
I563
sS'studies'
p565
I564
sS'carpets'
p566
I565
sS'tasks'
p567
I566
sS'love'
p568
I567
sS'radish'
p569
I568
sS'prefer'
p570
I569
sS'bloody'
p571
I570
sS'fake'
p572
I571
sS'sky'
p573
I8243
sS'sunbathing'
p574
I572
sS'working'
p575
I573
sS'turret'
p576
I574
sS'angry'
p577
I575
sS'bender'
p578
I576
sS'films'
p579
I3512
sS'scope'
p580
I578
sS'wicked'
p581
I579
sS'introducing'
p582
I580
sS'marbles'
p583
I581
sS'oregon'
p584
I582
sS'everywhere'
p585
I583
sS'riders'
p586
I584
sS'mascot'
p587
I585
sS'honey'
p588
I4174
sS'lumberjack'
p589
I587
sS'believer'
p590
I588
sS'values'
p591
I589
sS'pumpkin'
p592
I590
sS'awesome'
p593
I591
sS'parachute'
p594
I592
sS'graduation'
p595
I5640
sS'hides'
p596
I594
sS'allowed'
p597
I595
sS'monitoring'
p598
I596
sS'winter'
p599
I597
sS'divided'
p600
I598
sS'vancouver'
p601
I599
sS'elephant'
p602
I600
sS'laundry'
p603
I601
sS'landmark'
p604
I5560
sS'provincial'
p605
I602
sS'spot'
p606
I603
sS'date'
p607
I604
sS'such'
p608
I605
sS'data'
p609
I606
sS'lids'
p610
I607
sS'pulley'
p611
I608
sS'stress'
p612
I609
sS'surfing'
p613
I610
sS'natural'
p614
I611
sS'conscious'
p615
I612
sS'sr'
p616
I613
sS'wheelchair'
p617
I614
sS'sp'
p618
I615
sS'sw'
p619
I616
sS'st'
p620
I617
sS'sk'
p621
I618
sS'si'
p622
I619
sS'sh'
p623
I620
sS'truck'
p624
I621
sS'sn'
p625
I622
sS'sm'
p626
I623
sS'sc'
p627
I624
sS'sa'
p628
I625
sS'sf'
p629
I626
sS'se'
p630
I627
sS'sd'
p631
I628
sS'years'
p632
I630
sS'course'
p633
I631
sS'braids'
p634
I4184
sS'shudders'
p635
I633
sS'ovals'
p636
I634
sS'thumb'
p637
I635
sS'torn'
p638
I636
sS'sylvan'
p639
I637
sS'attraction'
p640
I638
sS'creations'
p641
I639
sS'suspicion'
p642
I640
sS'bipartisan'
p643
I641
sS'into'
p644
I642
sS'instantly'
p645
I643
sS'apron'
p646
I644
sS'nation'
p647
I645
sS'records'
p648
I646
sS'akron'
p649
I647
sS'twilight'
p650
I648
sS'ketchup'
p651
I649
sS'runners'
p652
I650
sS'hickory'
p653
I651
sS'hancock'
p654
I3956
sS'fisherman'
p655
I653
sS'bowling'
p656
I654
sS'veins'
p657
I655
sS'quarter'
p658
I656
sS'turtle'
p659
I657
sS'square'
p660
I658
sS'honduras'
p661
I659
sS'breakthrough'
p662
I660
sS'sponsor'
p663
I661
sS'entering'
p664
I662
sS'beetle'
p665
I663
sS'disasters'
p666
I664
sS'minority'
p667
I4191
sS'troll'
p668
I666
sS'naked'
p669
I7019
sS'canvas'
p670
I668
sS'container'
p671
I669
sS'highways'
p672
I670
sS'abide'
p673
I671
sS'internet'
p674
I673
sS'formula'
p675
I674
sS'squares'
p676
I675
sS'dodgers'
p677
I676
sS'million'
p678
I677
sS'seventh'
p679
I678
sS'recordings'
p680
I679
sS'ontario'
p681
I5654
sS'mime'
p682
I681
sS'grandma'
p683
I682
sS'poems'
p684
I683
sS'inhaler'
p685
I684
sS'unnamed'
p686
I685
sS'pimps'
p687
I686
sS'training'
p688
I687
sS'workmanship'
p689
I688
sS'backside'
p690
I689
sS'dunno'
p691
I690
sS'punk'
p692
I4173
sS'ostrich'
p693
I692
sS'aboard'
p694
I693
sS'routes'
p695
I694
sS'router'
p696
I695
sS'emotion'
p697
I696
sS'prong'
p698
I6413
sS'symmetry'
p699
I697
sS'spoken'
p700
I698
sS'distal'
p701
I699
sS'potter'
p702
I700
sS'one'
p703
I701
sS'spokes'
p704
I702
sS'spanish'
p705
I703
sS'vote'
p706
I704
sS'open'
p707
I705
sS'monks'
p708
I706
sS'city'
p709
I707
sS'boulevard'
p710
I708
sS'wrath'
p711
I709
sS'bite'
p712
I710
sS'spay'
p713
I711
sS'stuffed'
p714
I712
sS'typing'
p715
I713
sS'shoppers'
p716
I714
sS'bits'
p717
I715
sS'williams'
p718
I716
sS'starfish'
p719
I717
sS'floppy'
p720
I718
sS'shawl'
p721
I719
sS'tombstones'
p722
I720
sS'ridiculous'
p723
I721
sS'iceberg'
p724
I722
sS'rival'
p725
I723
sS'stammer'
p726
I724
sS'siding'
p727
I725
sS'future'
p728
I726
sS'winkle'
p729
I727
sS'counselor'
p730
I728
sS'russia'
p731
I729
sS'sam'
p732
I730
sS'turned'
p733
I4415
sS'locations'
p734
I732
sS'alley'
p735
I733
sS'sad'
p736
I734
sS'say'
p737
I4425
sS'allen'
p738
I736
sS'sap'
p739
I737
sS'saw'
p740
I738
sS'butters'
p741
I739
sS'baggage'
p742
I740
sS'warriors'
p743
I741
sS'zoo'
p744
I742
sS'note'
p745
I743
sS'take'
p746
I744
sS'supply'
p747
I8242
sS'destroy'
p748
I745
sS'vandals'
p749
I746
sS'butterfly'
p750
I747
sS'printer'
p751
I748
sS'opposite'
p752
I749
sS'miniature'
p753
I7373
sS'molecule'
p754
I750
sS'israeli'
p755
I751
sS'buffet'
p756
I752
sS'myna'
p757
I753
sS'pages'
p758
I754
sS'lawn'
p759
I755
sS'trembles'
p760
I756
sS'sale'
p761
I4588
sS'managing'
p762
I758
sS'messier'
p763
I759
sS'dolor'
p764
I760
sS'atlantic'
p765
I761
sS'salt'
p766
I762
sS'walking'
p767
I763
sS'peaches'
p768
I765
sS'bright'
p769
I766
sS'fife'
p770
I4208
sS'slot'
p771
I769
sS'weapons'
p772
I7040
sS'slow'
p773
I771
sS'romanian'
p774
I772
sS'tears'
p775
I773
sS'going'
p776
I774
sS'hockey'
p777
I775
sS'robe'
p778
I776
sS'carolina'
p779
I777
sS'lifeguard'
p780
I5665
sS'novels'
p781
I6023
sS'suitcases'
p782
I779
sS'recruiters'
p783
I780
sS'outlet'
p784
I781
sS'prime'
p785
I782
sS'resource'
p786
I783
sS'pimp'
p787
I784
sS'artist'
p788
I785
sS'skyline'
p789
I786
sS'priest'
p790
I787
sS'bombs'
p791
I788
sS'where'
p792
I789
sS'vision'
p793
I790
sS'gangster'
p794
I791
sS'surgery'
p795
I792
sS'diver'
p796
I793
sS'mecca'
p797
I794
sS'clips'
p798
I5666
sS'nostrum'
p799
I796
sS'sideburns'
p800
I797
sS'bootleg'
p801
I798
sS'sites'
p802
I799
sS'bureau'
p803
I800
sS'moons'
p804
I801
sS'teens'
p805
I802
sS'jumper'
p806
I803
sS'checkered'
p807
I804
sS'jobs'
p808
I805
sS'mature'
p809
I806
sS'vertical'
p810
I807
sS'screen'
p811
I808
sS'dome'
p812
I809
sS'supermarket'
p813
I810
sS'steroid'
p814
I811
sS'awards'
p815
I812
sS'analyzer'
p816
I2911
sS'jets'
p817
I814
sS'spark'
p818
I815
sS'quack'
p819
I816
sS'many'
p820
I817
sS's'
p821
I818
sS'mane'
p822
I819
sS'flipper'
p823
I820
sS'stream'
p824
I7907
sS'ants'
p825
I821
sS'twin'
p826
I822
sS'anti'
p827
I823
sS'boar'
p828
I824
sS'twig'
p829
I825
sS'boat'
p830
I826
sS'caring'
p831
I827
sS'stretch'
p832
I828
sS'west'
p833
I829
sS'vacation'
p834
I5099
sS'breath'
p835
I831
sS'overland'
p836
I832
sS'prototype'
p837
I833
sS'wants'
p838
I834
sS'lanes'
p839
I835
sS'thousand'
p840
I836
sS'readings'
p841
I837
sS'turtleneck'
p842
I838
sS'rooftops'
p843
I839
sS'calligraphy'
p844
I840
sS'former'
p845
I841
sS'consultant'
p846
I842
sS'single'
p847
I5673
sS'hayes'
p848
I844
sS'canoes'
p849
I845
sS'newspaper'
p850
I846
sS'situation'
p851
I847
sS'spotlight'
p852
I848
sS'canoe'
p853
I849
sS'brow'
p854
I851
sS'purse'
p855
I852
sS'blah'
p856
I853
sS'technology'
p857
I854
sS'ivy'
p858
I855
sS'binary'
p859
I856
sS'verified'
p860
I857
sS'prevail'
p861
I5678
sS'preparatory'
p862
I859
sS'coconuts'
p863
I860
sS'pushup'
p864
I861
sS'feather'
p865
I862
sS'downs'
p866
I4220
sS'sterling'
p867
I864
sS'barbed'
p868
I865
sS'wires'
p869
I866
sS'hideaway'
p870
I868
sS'sickness'
p871
I5344
sS'cheers'
p872
I870
sS'average'
p873
I4581
sS'wired'
p874
I871
sS'renewable'
p875
I872
sS'hummingbird'
p876
I873
sS'mohawk'
p877
I874
sS'teepee'
p878
I875
sS'tracking'
p879
I876
sS'beaus'
p880
I877
sS'customized'
p881
I878
sS'trains'
p882
I880
sS'genie'
p883
I881
sS'dimension'
p884
I882
sS'scholarship'
p885
I883
sS'summer'
p886
I884
sS'being'
p887
I885
sS'rest'
p888
I886
sS'schools'
p889
I887
sS'underline'
p890
I888
sS'weekly'
p891
I889
sS'rover'
p892
I890
sS'instrument'
p893
I891
sS'pow'
p894
I5324
sS'dicks'
p895
I893
sS'joyful'
p896
I894
sS'skier'
p897
I895
sS'crusty'
p898
I896
sS'around'
p899
I897
sS'sums'
p900
I898
sS'dart'
p901
I899
sS'sumo'
p902
I900
sS'traffic'
p903
I901
sS'vacuum'
p904
I902
sS'world'
p905
I903
sS'postal'
p906
I904
sS'dare'
p907
I905
sS'clan'
p908
I906
sS'clam'
p909
I907
sS'clad'
p910
I908
sS'shutter'
p911
I909
sS'tsunami'
p912
I910
sS'sic'
p913
I7947
sS'clay'
p914
I911
sS'claw'
p915
I912
sS'inter'
p916
I913
sS'kennel'
p917
I914
sS'clap'
p918
I915
sS'auditorium'
p919
I916
sS'scalpel'
p920
I917
sS'breadfruit'
p921
I918
sS'magma'
p922
I919
sS'lobster'
p923
I920
sS'diving'
p924
I921
sS'divine'
p925
I922
sS'endeavor'
p926
I7073
sS'composers'
p927
I924
sS'dimensions'
p928
I925
sS'tote'
p929
I926
sS'cavity'
p930
I927
sS'memories'
p931
I928
sS'tube'
p932
I929
sS'tobago'
p933
I930
sS'nook'
p934
I931
sS'cannabis'
p935
I932
sS'tubs'
p936
I933
sS'scientific'
p937
I934
sS'power'
p938
I935
sS'papa'
p939
I5683
sS'ration'
p940
I937
sS'leadership'
p941
I938
sS'throwback'
p942
I939
sS'thailand'
p943
I940
sS'stone'
p944
I941
sS'ace'
p945
I942
sS'package'
p946
I943
sS'rosemary'
p947
I4227
sS'industry'
p948
I945
sS'favorite'
p949
I946
sS'slender'
p950
I947
sS'side'
p951
I4228
sS'dibs'
p952
I949
sS'act'
p953
I950
sS'luck'
p954
I4230
sS'chivalry'
p955
I952
sS'burning'
p956
I953
sS'choppers'
p957
I954
sS'image'
p958
I955
sS'tripodal'
p959
I956
sS'lively'
p960
I957
sS'moped'
p961
I958
sS'parties'
p962
I959
sS'snakes'
p963
I960
sS'racquet'
p964
I961
sS'tropical'
p965
I962
sS'hep'
p966
I963
sS'chiffon'
p967
I4233
sS'her'
p968
I965
sS'philadelphia'
p969
I966
sS'myths'
p970
I967
sS'hen'
p971
I968
sS'bubble'
p972
I969
sS'continents'
p973
I970
sS'verbatim'
p974
I971
sS'beginners'
p975
I972
sS'elimination'
p976
I973
sS'mice'
p977
I974
sS'with'
p978
I975
sS'featuring'
p979
I7082
sS'buying'
p980
I977
sS'pull'
p981
I978
sS'rush'
p982
I979
sS'october'
p983
I980
sS'rage'
p984
I981
sS'rags'
p985
I983
sS'cyclops'
p986
I984
sS'dirty'
p987
I985
sS'russ'
p988
I986
sS'torso'
p989
I987
sS'agree'
p990
I988
sS'rust'
p991
I989
sS'aa'
p992
I990
sS'ac'
p993
I991
sS'ab'
p994
I992
sS'ad'
p995
I993
sS'ag'
p996
I994
sS'af'
p997
I995
sS'ai'
p998
I996
sS'ah'
p999
I997
sS'ak'
p1000
I998
sS'am'
p1001
I999
sS'al'
p1002
I1000
sS'watches'
p1003
I1001
sS'an'
p1004
I1002
sS'ap'
p1005
I1003
sS'as'
p1006
I1004
sS'ar'
p1007
I1005
sS'au'
p1008
I1006
sS'at'
p1009
I1007
sS'aw'
p1010
I1008
sS'laboratory'
p1011
I1009
sS'watched'
p1012
I1010
sS'pedestal'
p1013
I1011
sS'az'
p1014
I1012
sS'cream'
p1015
I1013
sS'collie'
p1016
I1014
sS'yoga'
p1017
I1015
sS'yogi'
p1018
I1016
sS'bremen'
p1019
I1017
sS'graduate'
p1020
I1018
sS'tight'
p1021
I1019
sS'beverage'
p1022
I1020
sS'puppy'
p1023
I1021
sS'congress'
p1024
I1022
sS'beaks'
p1025
I1023
sS'waving'
p1026
I1024
sS'herbs'
p1027
I1025
sS'midget'
p1028
I1026
sS'terry'
p1029
I1027
sS'neuter'
p1030
I1028
sS'omnibus'
p1031
I1029
sS'thorn'
p1032
I1030
sS'groom'
p1033
I1031
sS'mask'
p1034
I1032
sS'having'
p1035
I1033
sS'password'
p1036
I1034
sS'mast'
p1037
I1035
sS'mass'
p1038
I1036
sS'nelson'
p1039
I1037
sS'cpr'
p1040
I1038
sS'cpu'
p1041
I1039
sS'beware'
p1042
I1041
sS'ceramic'
p1043
I1042
sS'modernizing'
p1044
I1043
sS'tours'
p1045
I1044
sS'fairness'
p1046
I1045
sS'hunting'
p1047
I1046
sS'tv'
p1048
I1047
sS'rf'
p1049
I162
sS'dribble'
p1050
I7092
sS'to'
p1051
I1050
sS'tail'
p1052
I1051
sS'tm'
p1053
I1052
sS'chewing'
p1054
I1053
sS'th'
p1055
I1054
sS'dressing'
p1056
I1055
sS'smile'
p1057
I1056
sS'td'
p1058
I1057
sS'te'
p1059
I1058
sS'homepage'
p1060
I1059
sS'roadway'
p1061
I1060
sS'debit'
p1062
I1061
sS'baton'
p1063
I1062
sS'candid'
p1064
I1063
sS'diary'
p1065
I1064
sS'condition'
p1066
I1065
sS'illustrated'
p1067
I1066
sS'cable'
p1068
I1067
sS'ageing'
p1069
I1068
sS'laying'
p1070
I1069
sS'large'
p1071
I1070
sS'dinosaur'
p1072
I1071
sS'sand'
p1073
I1072
sS'harry'
p1074
I1073
sS'small'
p1075
I1074
sS'mammal'
p1076
I1075
sS'sync'
p1077
I1076
sS'past'
p1078
I1077
sS'pass'
p1079
I1078
sS'investment'
p1080
I1079
sS'quicken'
p1081
I1080
sS'shrugged'
p1082
I1081
sS'hormonal'
p1083
I1082
sS'richard'
p1084
I1083
sS'clock'
p1085
I1084
sS'section'
p1086
I1085
sS'nurse'
p1087
I1086
sS'microchip'
p1088
I1087
sS'method'
p1089
I1088
sS'contrast'
p1090
I1089
sS'full'
p1091
I1090
sS'hours'
p1092
I1091
sS'vacations'
p1093
I8032
sS'november'
p1094
I1092
sS'legend'
p1095
I1093
sS'landslide'
p1096
I2945
sS'sender'
p1097
I1095
sS'riviera'
p1098
I1096
sS'compliance'
p1099
I1097
sS'periodic'
p1100
I1098
sS'hamster'
p1101
I1099
sS'social'
p1102
I1100
sS'action'
p1103
I1101
sS'slope'
p1104
I6988
sS'welder'
p1105
I1102
sS'via'
p1106
I1103
sS'depart'
p1107
I1104
sS'vie'
p1108
I1105
sS'vim'
p1109
I1106
sS'follower'
p1110
I1107
sS'select'
p1111
I1108
sS'rudder'
p1112
I5703
sS'casket'
p1113
I1110
sS'trips'
p1114
I5976
sS'poodle'
p1115
I1111
sS'pears'
p1116
I1112
sS'pearl'
p1117
I1113
sS'archives'
p1118
I1114
sS'more'
p1119
I1115
sS'teen'
p1120
I1116
sS'door'
p1121
I1117
sS'company'
p1122
I1118
sS'emission'
p1123
I1119
sS'telephone'
p1124
I7106
sS'atlas'
p1125
I5706
sS'coyote'
p1126
I1122
sS'doom'
p1127
I1123
sS'tees'
p1128
I1124
sS'cunning'
p1129
I1125
sS'fleece'
p1130
I1126
sS'gravel'
p1131
I5708
sS'science'
p1132
I1128
sS'malt'
p1133
I1129
sS'chisel'
p1134
I1130
sS'topsail'
p1135
I1131
sS'mall'
p1136
I1132
sS'learn'
p1137
I1133
sS'grope'
p1138
I1134
sS'male'
p1139
I1135
sS'beautiful'
p1140
I1136
sS'atm'
p1141
I172
sS'memoirs'
p1142
I1138
sS'scan'
p1143
I1139
sS'messages'
p1144
I4258
sS'suggestions'
p1145
I1141
sS'states'
p1146
I1142
sS'heels'
p1147
I2949
sS'beaver'
p1148
I2950
sS'gallon'
p1149
I1145
sS'scar'
p1150
I1146
sS'dress'
p1151
I1147
sS'bonded'
p1152
I1148
sS'huge'
p1153
I1149
sS'interconnect'
p1154
I1150
sS'enlarge'
p1155
I1151
sS'musicians'
p1156
I1152
sS'dessert'
p1157
I5712
sS'plant'
p1158
I1154
sS'plans'
p1159
I1155
sS'treatments'
p1160
I1156
sS'soundtrack'
p1161
I1157
sS'plane'
p1162
I1158
sS'waves'
p1163
I1159
sS'backyard'
p1164
I1160
sS'ethics'
p1165
I1161
sS'authentic'
p1166
I1162
sS'plank'
p1167
I1163
sS'register'
p1168
I1164
sS'volleyball'
p1169
I1165
sS'wrench'
p1170
I1166
sS'helplessly'
p1171
I1167
sS'patio'
p1172
I1168
sS'pans'
p1173
I1169
sS'pant'
p1174
I1170
sS'installed'
p1175
I1171
sS'resorts'
p1176
I1172
sS'attitude'
p1177
I1173
sS'paper'
p1178
I1174
sS'scott'
p1179
I1175
sS'brim'
p1180
I1176
sS'replies'
p1181
I1177
sS'broadway'
p1182
I1178
sS'smiling'
p1183
I1179
sS'brig'
p1184
I1180
sS'its'
p1185
I1181
sS'woolf'
p1186
I1182
sS'astrology'
p1187
I1183
sS'hounds'
p1188
I1184
sS'laces'
p1189
I1185
sS'sauce'
p1190
I1186
sS'ally'
p1191
I1187
sS'lowell'
p1192
I1188
sS'motley'
p1193
I1189
sS'gadget'
p1194
I1190
sS'pegasus'
p1195
I1191
sS'weeds'
p1196
I1192
sS'liverworts'
p1197
I1193
sS'buffering'
p1198
I1194
sS'lettuce'
p1199
I4267
sS'nugget'
p1200
I1196
sS'always'
p1201
I1197
sS'isle'
p1202
I7122
sS'courses'
p1203
I1199
sS'found'
p1204
I1200
sS'shocking'
p1205
I1201
sS'lantern'
p1206
I1202
sS'week'
p1207
I7124
sS'brunette'
p1208
I1204
sS'england'
p1209
I1205
sS'critters'
p1210
I1206
sS'mackenzie'
p1211
I1207
sS'jellies'
p1212
I1208
sS'measurement'
p1213
I1209
sS'operation'
p1214
I1210
sS'really'
p1215
I1211
sS'lipstick'
p1216
I1212
sS'research'
p1217
I1213
sS'ftc'
p1218
I1214
sS'grads'
p1219
I4271
sS'darling'
p1220
I1216
sS'nest'
p1221
I7125
sS'salute'
p1222
I1218
sS'risen'
p1223
I1219
sS'localization'
p1224
I1220
sS'porcelain'
p1225
I1221
sS'sparked'
p1226
I1222
sS'cockpit'
p1227
I1223
sS'qualify'
p1228
I1224
sS'imaging'
p1229
I1225
sS'acorn'
p1230
I1226
sS'imagine'
p1231
I1227
sS'definition'
p1232
I1228
sS'owners'
p1233
I1229
sS'lingual'
p1234
I1230
sS'mahler'
p1235
I1231
sS'w'
p1236
I1232
sS'bumper'
p1237
I1233
sS'testament'
p1238
I1234
sS'castle'
p1239
I1235
sS'sidewinder'
p1240
I1236
sS'major'
p1241
I1237
sS'number'
p1242
I1238
sS'preservation'
p1243
I1239
sS'feeder'
p1244
I1240
sS'slipper'
p1245
I1241
sS'narcissus'
p1246
I1242
sS'glitter'
p1247
I1243
sS'guess'
p1248
I1244
sS'fuller'
p1249
I1245
sS'jew'
p1250
I1246
sS'jet'
p1251
I1247
sS'introduction'
p1252
I1248
sS'saint'
p1253
I1249
sS'essays'
p1254
I1250
sS'molecular'
p1255
I1251
sS'relationship'
p1256
I1252
sS'immediate'
p1257
I1253
sS'crop'
p1258
I5724
sS'consult'
p1259
I1255
sS'burrito'
p1260
I2970
sS'stairs'
p1261
I1257
sS'observatory'
p1262
I1258
sS'aaa'
p1263
I1259
sS'vocal'
p1264
I1260
sS'marriage'
p1265
I1261
sS'ranch'
p1266
I7136
sS'swanky'
p1267
I1262
sS'moonshiners'
p1268
I1263
sS'wysiwyg'
p1269
I1264
sS'graffiti'
p1270
I1265
sS'blond'
p1271
I1266
sS'sell'
p1272
I1267
sS'ballerina'
p1273
I1268
sS'clutch'
p1274
I8260
sS'spaghetti'
p1275
I1269
sS'self'
p1276
I1270
sS'trowel'
p1277
I1271
sS'recognizing'
p1278
I1272
sS'internal'
p1279
I1273
sS'steppe'
p1280
I1274
sS'murray'
p1281
I4210
sS'brace'
p1282
I1275
sS'play'
p1283
I1276
sS'singles'
p1284
I1277
sS'blackboard'
p1285
I1278
sS'yawn'
p1286
I1279
sS'virus'
p1287
I1280
sS'plan'
p1288
I1281
sS'darts'
p1289
I1282
sS'oyster'
p1290
I1283
sS'modem'
p1291
I7141
sS'cover'
p1292
I1285
sS'tensioning'
p1293
I1286
sS'lounge'
p1294
I7977
sS'barrel'
p1295
I1287
sS'bulletin'
p1296
I1288
sS'piper'
p1297
I5732
sS'golf'
p1298
I1289
sS'gold'
p1299
I1290
sS'nasdaq'
p1300
I1291
sS'blender'
p1301
I1292
sS'impact'
p1302
I1293
sS'writer'
p1303
I1294
sS'reels'
p1304
I1295
sS'failed'
p1305
I1296
sS'enzyme'
p1306
I1297
sS'wayne'
p1307
I1298
sS'equity'
p1308
I1299
sS'armour'
p1309
I2978
sS'columns'
p1310
I1301
sS'giants'
p1311
I1302
sS'magicians'
p1312
I1303
sS'gratis'
p1313
I1304
sS'dandelion'
p1314
I1305
sS'closely'
p1315
I1306
sS'compass'
p1316
I1307
sS'banner'
p1317
I1308
sS'enemy'
p1318
I1309
sS'progressive'
p1319
I1310
sS'pleasures'
p1320
I1311
sS'cry'
p1321
I1312
sS'bytes'
p1322
I1313
sS'croatia'
p1323
I1314
sS'river'
p1324
I1315
sS'approaching'
p1325
I1316
sS'insane'
p1326
I1317
sS'set'
p1327
I1318
sS'creator'
p1328
I1319
sS'see'
p1329
I1320
sS'sec'
p1330
I1321
sS'sea'
p1331
I1322
sS'origami'
p1332
I1323
sS'institutes'
p1333
I1324
sS'outward'
p1334
I1325
sS'shower'
p1335
I1326
sS'vitamins'
p1336
I1327
sS'movie'
p1337
I1328
sS'dipole'
p1338
I1329
sS'crossword'
p1339
I1330
sS'pickup'
p1340
I1331
sS'crosswalk'
p1341
I1332
sS'nope'
p1342
I1333
sS'kneel'
p1343
I1334
sS'available'
p1344
I1335
sS'brewing'
p1345
I1336
sS'interface'
p1346
I1337
sS'genealogist'
p1347
I1338
sS'recherche'
p1348
I1339
sS'last'
p1349
I1340
sS'harps'
p1350
I1341
sS'thou'
p1351
I1342
sS'connection'
p1352
I1343
sS'amoeba'
p1353
I1344
sS'lash'
p1354
I1345
sS'poverty'
p1355
I1346
sS'whole'
p1356
I1347
sS'messiah'
p1357
I1348
sS'patty'
p1358
I1349
sS'load'
p1359
I1350
sS'loaf'
p1360
I1351
sS'pendulum'
p1361
I1352
sS'drunk'
p1362
I1353
sS'loan'
p1363
I1354
sS'community'
p1364
I1355
sS'frosty'
p1365
I1356
sS'scottish'
p1366
I1357
sS'belt'
p1367
I1358
sS'devil'
p1368
I1359
sS'publishing'
p1369
I1360
sS'monthly'
p1370
I1361
sS'runner'
p1371
I1362
sS'rosy'
p1372
I7164
sS'firm'
p1373
I1364
sS'sleeved'
p1374
I1365
sS'squirrel'
p1375
I1366
sS'fire'
p1376
I1367
sS'fund'
p1377
I1368
sS'racer'
p1378
I1369
sS'sleeves'
p1379
I1370
sS'insiders'
p1380
I1371
sS'towns'
p1381
I1372
sS'funk'
p1382
I1373
sS'presses'
p1383
I1374
sS'hostess'
p1384
I1375
sS'reliable'
p1385
I1376
sS'budget'
p1386
I1378
sS'sesame'
p1387
I1379
sS'receive'
p1388
I1380
sS'leaning'
p1389
I39
sS'kissing'
p1390
I1382
sS'robin'
p1391
I1383
sS'real'
p1392
I2993
sS'pound'
p1393
I1385
sS'ducky'
p1394
I1386
sS'moth'
p1395
I1387
sS'calculator'
p1396
I1388
sS'owen'
p1397
I1389
sS'ducks'
p1398
I1390
sS'sitar'
p1399
I1391
sS'hover'
p1400
I2995
sS'centennial'
p1401
I1393
sS'chase'
p1402
I1394
sS'funny'
p1403
I1395
sS'decor'
p1404
I1396
sS'raiders'
p1405
I1397
sS'mint'
p1406
I4301
sS'pliers'
p1407
I1399
sS'rules'
p1408
I2999
sS'virtually'
p1409
I1401
sS'knitting'
p1410
I1402
sS'snail'
p1411
I1403
sS'cigar'
p1412
I1404
sS'alert'
p1413
I1405
sS'levels'
p1414
I1406
sS'cucumber'
p1415
I1407
sS'gonna'
p1416
I1408
sS'stack'
p1417
I1409
sS'recent'
p1418
I1410
sS'loathsome'
p1419
I1411
sS'honor'
p1420
I5748
sS'person'
p1421
I1413
sS'clearance'
p1422
I1414
sS'titled'
p1423
I6386
sS'amp'
p1424
I1415
sS'unto'
p1425
I1416
sS'sandal'
p1426
I1417
sS'goblet'
p1427
I1418
sS'cuffs'
p1428
I1419
sS'readers'
p1429
I1420
sS'reap'
p1430
I1421
sS'admission'
p1431
I1422
sS'aloha'
p1432
I1423
sS'pillars'
p1433
I1424
sS'snappy'
p1434
I1425
sS'parents'
p1435
I1426
sS'location'
p1436
I1427
sS'homeland'
p1437
I1428
sS'flowchart'
p1438
I2952
sS'surprised'
p1439
I1430
sS'australia'
p1440
I1431
sS'emergency'
p1441
I1432
sS'format'
p1442
I1433
sS'couple'
p1443
I1434
sS'quest'
p1444
I1435
sS'blackjack'
p1445
I1436
sS'aerospace'
p1446
I1437
sS'projects'
p1447
I1438
sS'flannel'
p1448
I1439
sS'd'
p1449
I1440
sS'spine'
p1450
I1441
sS'chorus'
p1451
I1442
sS'continue'
p1452
I1443
sS'stylish'
p1453
I1444
sS'mahjong'
p1454
I5753
sS'senate'
p1455
I1446
sS'spring'
p1456
I1447
sS'limb'
p1457
I5755
sS'palm'
p1458
I1449
sS'mideast'
p1459
I1450
sS'sprint'
p1460
I1451
sS'mummy'
p1461
I1452
sS'veterinary'
p1462
I1453
sS'religion'
p1463
I1454
sS'dating'
p1464
I1455
sS'pools'
p1465
I6096
sS'temple'
p1466
I1456
sS't'
p1467
I1457
sS'chines'
p1468
I2183
sS'be'
p1469
I1458
sS'ba'
p1470
I1459
sS'bb'
p1471
I1460
sS'requiem'
p1472
I4378
sS'bo'
p1473
I1462
sS'santa'
p1474
I1463
sS'bs'
p1475
I1464
sS'carol'
p1476
I1465
sS'by'
p1477
I1466
sS'wildlife'
p1478
I1467
sS'certificate'
p1479
I1468
sS'anything'
p1480
I1469
sS'hatchet'
p1481
I1470
sS'wrinkles'
p1482
I1471
sS'melbourne'
p1483
I1472
sS'deserves'
p1484
I1473
sS'stuart'
p1485
I1474
sS'anterior'
p1486
I1477
sS'clinton'
p1487
I1478
sS'colorado'
p1488
I1479
sS'garbage'
p1489
I1480
sS'hemingway'
p1490
I1481
sS'primarily'
p1491
I1482
sS'guideline'
p1492
I1483
sS'span'
p1493
I1484
sS'arcade'
p1494
I1485
sS'spending'
p1495
I1486
sS'sock'
p1496
I1487
sS'submit'
p1497
I1488
sS'custom'
p1498
I1489
sS'crackdown'
p1499
I1490
sS'suit'
p1500
I1491
sS'athlete'
p1501
I1492
sS'blueprint'
p1502
I1493
sS'atlantis'
p1503
I1494
sS'inches'
p1504
I1495
sS'jewish'
p1505
I1496
sS'poster'
p1506
I1497
sS'atop'
p1507
I1498
sS'buttery'
p1508
I1499
sS'link'
p1509
I1500
sS'competition'
p1510
I1501
sS'atom'
p1511
I1502
sS'line'
p1512
I1503
sS'ut'
p1513
I1504
sS'up'
p1514
I1505
sS'us'
p1515
I1506
sS'um'
p1516
I1507
sS'ul'
p1517
I1508
sS'un'
p1518
I1509
sS'uk'
p1519
I1510
sS'faded'
p1520
I1511
sS'marseille'
p1521
I1512
sS'medical'
p1522
I1513
sS'aerial'
p1523
I1514
sS'labrador'
p1524
I1515
sS'armstrong'
p1525
I1516
sS'defined'
p1526
I1517
sS'nighttime'
p1527
I4322
sS'haunt'
p1528
I1519
sS'chat'
p1529
I1520
sS'phantom'
p1530
I1522
sS'thugs'
p1531
I1523
sS'intrepid'
p1532
I1524
sS'caracas'
p1533
I1525
sS'scrape'
p1534
I1526
sS'actors'
p1535
I1527
sS'swirl'
p1536
I1528
sS'sails'
p1537
I1529
sS'tart'
p1538
I1530
sS'trouser'
p1539
I1531
sS'scrub'
p1540
I1532
sS'sided'
p1541
I1533
sS'robots'
p1542
I1534
sS'dos'
p1543
I4327
sS'mood'
p1544
I7194
sS'ago'
p1545
I1537
sS'lane'
p1546
I1538
sS'land'
p1547
I1539
sS'fighter'
p1548
I1540
sS'wafer'
p1549
I1541
sS'consumer'
p1550
I4328
sS'age'
p1551
I1543
sS'holes'
p1552
I1544
sS'sawyer'
p1553
I1545
sS'feud'
p1554
I1546
sS'summit'
p1555
I1547
sS'doves'
p1556
I1548
sS'fresh'
p1557
I1549
sS'hello'
p1558
I1550
sS'essay'
p1559
I1551
sS'code'
p1560
I1552
sS'partial'
p1561
I1553
sS'saying'
p1562
I1554
sS'scratch'
p1563
I1555
sS'results'
p1564
I1556
sS'astronauts'
p1565
I1557
sS'totes'
p1566
I1558
sS'signatures'
p1567
I1559
sS'gossip'
p1568
I1560
sS'humpback'
p1569
I1561
sS'young'
p1570
I1562
sS'send'
p1571
I1563
sS'will'
p1572
I8193
sS'resources'
p1573
I1564
sS'garden'
p1574
I1565
sS'tulsa'
p1575
I1566
sS'continues'
p1576
I1567
sS'llama'
p1577
I1568
sS'perks'
p1578
I8298
sS'continued'
p1579
I1569
sS'minerals'
p1580
I1570
sS'categories'
p1581
I1571
sS'northwestern'
p1582
I1572
sS'magic'
p1583
I1573
sS'harbor'
p1584
I1574
sS'marry'
p1585
I1575
sS'try'
p1586
I1576
sS'race'
p1587
I1578
sS'obesity'
p1588
I1579
sS'rack'
p1589
I1580
sS'tunisian'
p1590
I1582
sS'mishap'
p1591
I1583
sS'video'
p1592
I1584
sS'haiku'
p1593
I1585
sS'wheat'
p1594
I3018
sS'pajamas'
p1595
I1587
sS'ode'
p1596
I1588
sS'victor'
p1597
I1589
sS'graduating'
p1598
I1590
sS'morse'
p1599
I1591
sS'multimedia'
p1600
I1592
sS'indian'
p1601
I1593
sS'bird'
p1602
I1594
sS'scenery'
p1603
I1595
sS'lea'
p1604
I1596
sS'led'
p1605
I1597
sS'lee'
p1606
I1598
sS'leg'
p1607
I1599
sS'lei'
p1608
I1600
sS'punch'
p1609
I1601
sS'leo'
p1610
I1602
sS'ibis'
p1611
I1603
sS'let'
p1612
I1604
sS'fifteen'
p1613
I1606
sS'physiology'
p1614
I1607
sS'vinegar'
p1615
I1609
sS'great'
p1616
I1610
sS'technical'
p1617
I1611
sS'involved'
p1618
I1612
sS'casino'
p1619
I1613
sS'titanic'
p1620
I1614
sS'wayside'
p1621
I7578
sS'survey'
p1622
I1616
sS'defeat'
p1623
I1617
sS'popcorn'
p1624
I1618
sS'maker'
p1625
I1619
sS'altho'
p1626
I1620
sS'disobey'
p1627
I1621
sS'sgt'
p1628
I1622
sS'mariners'
p1629
I1623
sS'sirs'
p1630
I1624
sS'cupid'
p1631
I1625
sS'tools'
p1632
I1626
sS'standing'
p1633
I1627
sS'pawn'
p1634
I1629
sS'zip'
p1635
I1630
sS'chocolates'
p1636
I1631
sS'theme'
p1637
I1632
sS'aeon'
p1638
I1633
sS'eleven'
p1639
I1634
sS'doubt'
p1640
I1635
sS'pencil'
p1641
I1636
sS'babe'
p1642
I1637
sS'carrying'
p1643
I1638
sS'bullhorn'
p1644
I1639
sS'sharply'
p1645
I1640
sS'pygmy'
p1646
I1641
sS'baby'
p1647
I1642
sS'charity'
p1648
I1643
sS'customer'
p1649
I1644
sS'balls'
p1650
I1645
sS'animals'
p1651
I1646
sS'this'
p1652
I1647
sS'challenge'
p1653
I1648
sS'when'
p1654
I7144
sS'pour'
p1655
I1649
sS'larch'
p1656
I1650
sS'thin'
p1657
I1651
sS'drill'
p1658
I1652
sS'coffin'
p1659
I1653
sS'streamer'
p1660
I1654
sS'wedge'
p1661
I1655
sS'bent'
p1662
I1656
sS'reeds'
p1663
I1657
sS'process'
p1664
I1658
sS'lock'
p1665
I1659
sS'loch'
p1666
I1660
sS'slim'
p1667
I1661
sS'rode'
p1668
I1662
sS'purposes'
p1669
I1663
sS'pieces'
p1670
I1664
sS'high'
p1671
I1665
sS'slit'
p1672
I1666
sS'bend'
p1673
I1667
sS'slip'
p1674
I1668
sS'pelvis'
p1675
I1669
sS'rods'
p1676
I1670
sS'paws'
p1677
I1671
sS'trumpet'
p1678
I1672
sS'educational'
p1679
I1673
sS'martyr'
p1680
I1674
sS'tableau'
p1681
I1675
sS'delay'
p1682
I1676
sS'animal'
p1683
I1677
sS'comedy'
p1684
I1678
sS'intelligent'
p1685
I1679
sS'especial'
p1686
I1680
sS'smut'
p1687
I1681
sS'blocks'
p1688
I1682
sS'wallpaper'
p1689
I1683
sS'pigs'
p1690
I1684
sS'graveyards'
p1691
I1685
sS'ties'
p1692
I1686
sS'cabbage'
p1693
I1687
sS'hawk'
p1694
I1688
sS'autograph'
p1695
I1689
sS'tomato'
p1696
I1690
sS'counter'
p1697
I1691
sS'robot'
p1698
I1692
sS'element'
p1699
I1693
sS'pyramids'
p1700
I1694
sS'alloy'
p1701
I1695
sS'houston'
p1702
I1696
sS'antelope'
p1703
I1697
sS'reversal'
p1704
I1698
sS'volts'
p1705
I1699
sS'insight'
p1706
I1700
sS'produced'
p1707
I1701
sS'spatula'
p1708
I1702
sS'comma'
p1709
I1703
sS'artichoke'
p1710
I1704
sS'volta'
p1711
I1705
sS'warren'
p1712
I1706
sS'perfect'
p1713
I1707
sS'chosen'
p1714
I1708
sS'pullover'
p1715
I1709
sS'degrees'
p1716
I1710
sS'designs'
p1717
I544
sS'python'
p1718
I1712
sS'earn'
p1719
I1713
sS'dock'
p1720
I1714
sS'asymmetrical'
p1721
I1715
sS'kiss'
p1722
I1716
sS'rotation'
p1723
I1717
sS'cage'
p1724
I1718
sS'realize'
p1725
I1719
sS'presidential'
p1726
I1720
sS'wrangler'
p1727
I1721
sS'scenic'
p1728
I1722
sS'truth'
p1729
I1723
sS'accounts'
p1730
I7230
sS'glasses'
p1731
I1725
sS'beginner'
p1732
I1726
sS'tents'
p1733
I1727
sS'doing'
p1734
I1728
sS'sportsman'
p1735
I1729
sS'society'
p1736
I1730
sS'books'
p1737
I1731
sS'static'
p1738
I1732
sS'thirteen'
p1739
I1733
sS'irritation'
p1740
I1734
sS'bay'
p1741
I1735
sS'tenth'
p1742
I2060
sS'boutique'
p1743
I1737
sS'valve'
p1744
I1738
sS'bad'
p1745
I4361
sS'oblong'
p1746
I1740
sS'tempo'
p1747
I1741
sS'temps'
p1748
I1743
sS'graze'
p1749
I1744
sS'regulatory'
p1750
I1745
sS'steering'
p1751
I1746
sS'scary'
p1752
I1747
sS'spill'
p1753
I1748
sS'biosphere'
p1754
I1749
sS'transferable'
p1755
I1750
sS'could'
p1756
I1751
sS'david'
p1757
I1752
sS'length'
p1758
I1753
sS'notebook'
p1759
I1754
sS'pudding'
p1760
I1755
sS'davis'
p1761
I1756
sS'hussein'
p1762
I1757
sS'scarf'
p1763
I1758
sS'manuscript'
p1764
I1759
sS'pines'
p1765
I1760
sS'solitaires'
p1766
I2218
sS'jesus'
p1767
I1762
sS'cobweb'
p1768
I1763
sS'owner'
p1769
I1764
sS'scent'
p1770
I1765
sS'festival'
p1771
I2052
sS'system'
p1772
I1767
sS'einstein'
p1773
I5840
sS'percussion'
p1774
I1768
sS'decorations'
p1775
I1769
sS'spaceship'
p1776
I1770
sS'evacuated'
p1777
I1771
sS'pervasive'
p1778
I1772
sS'enforcement'
p1779
I1773
sS'stomach'
p1780
I1774
sS'stars'
p1781
I3045
sS'shorts'
p1782
I1776
sS'elite'
p1783
I1777
sS'steel'
p1784
I1778
sS'trike'
p1785
I1779
sS'roulette'
p1786
I1780
sS'bother'
p1787
I1781
sS'psalm'
p1788
I1782
sS'reproduction'
p1789
I1783
sS'steep'
p1790
I1784
sS'steer'
p1791
I1785
sS'collecting'
p1792
I1786
sS'partnership'
p1793
I1787
sS'tonight'
p1794
I1788
sS'gentle'
p1795
I1789
sS'receptionist'
p1796
I2414
sS'viewed'
p1797
I1791
sS'necessities'
p1798
I1793
sS'prohibits'
p1799
I1794
sS'documents'
p1800
I1795
sS'dishes'
p1801
I1796
sS'hammer'
p1802
I1797
sS'mills'
p1803
I1798
sS'bonanza'
p1804
I1799
sS'babes'
p1805
I1800
sS'airdrop'
p1806
I2479
sS'competence'
p1807
I2481
sS'soar'
p1808
I1804
sS'worldwide'
p1809
I2487
sS'pebbles'
p1810
I1806
sS'manor'
p1811
I1807
sS'petals'
p1812
I1808
sS'courtesy'
p1813
I1809
sS'visa'
p1814
I1810
sS'vise'
p1815
I1811
sS'device'
p1816
I1812
sS'medal'
p1817
I1814
sS'placement'
p1818
I1815
sS'thanksgiving'
p1819
I1816
sS'face'
p1820
I1817
sS'brew'
p1821
I1818
sS'trappers'
p1822
I1819
sS'painting'
p1823
I1820
sS'assholes'
p1824
I1821
sS'bring'
p1825
I1822
sS'biker'
p1826
I1823
sS'bikes'
p1827
I1824
sS'greenhouse'
p1828
I1825
sS'rouge'
p1829
I2623
sS'principal'
p1830
I1827
sS'jay'
p1831
I1828
sS'jaw'
p1832
I1829
sS'jar'
p1833
I1830
sS'should'
p1834
I1831
sS'terminal'
p1835
I2661
sS'jam'
p1836
I1833
sS'tape'
p1837
I1834
sS'molecules'
p1838
I1835
sS'riding'
p1839
I2671
sS'flinch'
p1840
I1837
sS'mayors'
p1841
I1838
sS'hope'
p1842
I1839
sS'meant'
p1843
I1840
sS'move'
p1844
I1841
sS'handle'
p1845
I2695
sS'bonds'
p1846
I2699
sS'lucky'
p1847
I1844
sS'autos'
p1848
I1845
sS'smash'
p1849
I1846
sS'shaver'
p1850
I4382
sS'denmark'
p1851
I2752
sS'rapper'
p1852
I1849
sS'ire'
p1853
I1850
sS'stuff'
p1854
I1851
sS'ohio'
p1855
I1852
sS'rein'
p1856
I1853
sS'handstand'
p1857
I1854
sS'carrier'
p1858
I8299
sS'motorcycle'
p1859
I1855
sS'frame'
p1860
I1856
sS'credo'
p1861
I4384
sS'packet'
p1862
I1858
sS'edition'
p1863
I1859
sS'agricultural'
p1864
I5817
sS'airmail'
p1865
I1860
sS'lyon'
p1866
I1861
sS'wire'
p1867
I1862
sS'superhero'
p1868
I1863
sS'destiny'
p1869
I1864
sS'jurassic'
p1870
I1865
sS'nuclear'
p1871
I1866
sS'nominees'
p1872
I1867
sS'pistol'
p1873
I1868
sS'email'
p1874
I1869
sS'disgruntled'
p1875
I1870
sS'witless'
p1876
I1871
sS'tented'
p1877
I1872
sS'drum'
p1878
I1873
sS'ramp'
p1879
I1874
sS'drug'
p1880
I1875
sS'doorway'
p1881
I1876
sS'bristol'
p1882
I1877
sS'apostrophe'
p1883
I2966
sS'heart'
p1884
I7896
sS'co'
p1885
I1879
sS'cm'
p1886
I1880
sS'cl'
p1887
I1881
sS'cb'
p1888
I1882
sS'ca'
p1889
I1883
sS'defiance'
p1890
I1884
sS'skylights'
p1891
I1885
sS'cd'
p1892
I1886
sS'cz'
p1893
I1887
sS'incest'
p1894
I1888
sS'cs'
p1895
I1889
sS'winning'
p1896
I5825
sS'ct'
p1897
I1891
sS'debt'
p1898
I1892
sS'mailman'
p1899
I1893
sS'midland'
p1900
I1894
sS'powered'
p1901
I1895
sS'apologize'
p1902
I1896
sS'genetic'
p1903
I1898
sS'chalkboard'
p1904
I1899
sS'utilizing'
p1905
I1900
sS'waste'
p1906
I1901
sS'louisiana'
p1907
I1902
sS'trinity'
p1908
I1903
sS'sales'
p1909
I1904
sS'planner'
p1910
I1905
sS'roasting'
p1911
I3091
sS'graphics'
p1912
I1907
sS'atlanta'
p1913
I1908
sS'spain'
p1914
I1909
sS'laser'
p1915
I1910
sS'basket'
p1916
I1911
sS'runway'
p1917
I1912
sS'maui'
p1918
I1913
sS'tasty'
p1919
I7261
sS'bathtub'
p1920
I3146
sS'pits'
p1921
I1916
sS'va'
p1922
I1917
sS'stuffing'
p1923
I1918
sS'vi'
p1924
I1919
sS'site'
p1925
I1920
sS'laundering'
p1926
I1921
sS'pitt'
p1927
I1922
sS'vp'
p1928
I1923
sS'vt'
p1929
I1924
sS'macedonia'
p1930
I1925
sS'greater'
p1931
I5830
sS'ransom'
p1932
I1927
sS'tattoo'
p1933
I1928
sS'terrorist'
p1934
I1929
sS'romance'
p1935
I1930
sS'matthew'
p1936
I3206
sS'terrorism'
p1937
I1932
sS'phi'
p1938
I1933
sS'ball'
p1939
I1934
sS'columbia'
p1940
I3233
sS'dusk'
p1941
I1936
sS'drink'
p1942
I1937
sS'upon'
p1943
I1938
sS'phd'
p1944
I1939
sS'dust'
p1945
I1940
sS'overalls'
p1946
I1941
sS'afghan'
p1947
I1942
sS'broccoli'
p1948
I1943
sS'identity'
p1949
I3274
sS'diabetes'
p1950
I1945
sS'off'
p1951
I1946
sS'shotgun'
p1952
I1947
sS'colour'
p1953
I1948
sS'southeastern'
p1954
I1949
sS'patterns'
p1955
I1950
sS'command'
p1956
I1951
sS'audio'
p1957
I1952
sS'drawing'
p1958
I1953
sS'snake'
p1959
I1954
sS'bananas'
p1960
I1955
sS'less'
p1961
I1956
sS'moments'
p1962
I1957
sS'rooms'
p1963
I1958
sS'paul'
p1964
I1959
sS'glue'
p1965
I1960
sS'web'
p1966
I1961
sS'bibliography'
p1967
I1962
sS'wee'
p1968
I1963
sS'hauntingly'
p1969
I3378
sS'residential'
p1970
I1965
sS'baccarat'
p1971
I1966
sS'spinner'
p1972
I1967
sS'arrest'
p1973
I1968
sS'cosmetics'
p1974
I1969
sS'wet'
p1975
I3393
sS'magnify'
p1976
I1971
sS'government'
p1977
I1972
sS'pied'
p1978
I1973
sS'haul'
p1979
I1974
sS'five'
p1980
I1975
sS'gambling'
p1981
I3074
sS'belgium'
p1982
I1977
sS'height'
p1983
I1978
sS'pier'
p1984
I1979
sS'onion'
p1985
I1980
sS'bulge'
p1986
I3456
sS'matte'
p1987
I1982
sS'garage'
p1988
I1983
sS'mhz'
p1989
I1984
sS'become'
p1990
I1985
sS'emmy'
p1991
I1986
sS'grids'
p1992
I1988
sS'thief'
p1993
I1989
sS'gymnastics'
p1994
I1990
sS'choosing'
p1995
I1991
sS'flush'
p1996
I1992
sS'ballot'
p1997
I1993
sS'humming'
p1998
I1994
sS'transport'
p1999
I1995
sS'kitties'
p2000
I6519
sS'bedding'
p2001
I1996
sS'salaries'
p2002
I1997
sS'breakout'
p2003
I3569
sS'passion'
p2004
I1999
sS'blurry'
p2005
I2000
sS'stairway'
p2006
I2001
sS'biology'
p2007
I2002
sS'schedule'
p2008
I2003
sS'pear'
p2009
I3080
sS'pressure'
p2010
I2005
sS'loans'
p2011
I2006
sS'stage'
p2012
I2007
sS'iris'
p2013
I2008
sS'sister'
p2014
I2009
sS'chrome'
p2015
I2010
sS'seeds'
p2016
I2011
sS'whistler'
p2017
I2012
sS'documentary'
p2018
I2013
sS'swimming'
p2019
I3671
sS'alliance'
p2020
I2015
sS'letters'
p2021
I2016
sS'catherine'
p2022
I2017
sS'camden'
p2023
I3704
sS'joyce'
p2024
I2020
sS'roads'
p2025
I2021
sS'swimmers'
p2026
I2022
sS'charities'
p2027
I2023
sS'advert'
p2028
I2024
sS'housing'
p2029
I2025
sS'spots'
p2030
I2026
sS'peters'
p2031
I2027
sS'frustration'
p2032
I2028
sS'naturally'
p2033
I2030
sS'rhythmic'
p2034
I2031
sS'funnel'
p2035
I2032
sS'yarns'
p2036
I2033
sS'delivery'
p2037
I2034
sS'construction'
p2038
I2035
sS'mugshot'
p2039
I2036
sS'rectum'
p2040
I2037
sS'apollo'
p2041
I2038
sS'valuation'
p2042
I2039
sS'count'
p2043
I2040
sS'baptist'
p2044
I2041
sS'marquis'
p2045
I2042
sS'places'
p2046
I2043
sS'official'
p2047
I2044
sS'smooth'
p2048
I2045
sS'authority'
p2049
I6077
sS'monument'
p2050
I2046
sS'problem'
p2051
I3859
sS'menstruation'
p2052
I2048
sS'irish'
p2053
I2049
sS'kingston'
p2054
I2050
sS'rubble'
p2055
I2051
sS'ordering'
p2056
I1766
sS'consumed'
p2057
I2053
sS'inn'
p2058
I2054
sS'websites'
p2059
I7293
sS'ink'
p2060
I2056
sS'ind'
p2061
I2057
sS'sweatshirt'
p2062
I5841
sS'variety'
p2063
I2059
sS'trials'
p2064
I3926
sS'details'
p2065
I2061
sS'behold'
p2066
I2062
sS'illusion'
p2067
I2063
sS'ponytail'
p2068
I2064
sS'chameleon'
p2069
I7321
sS'chum'
p2070
I2065
sS'monday'
p2071
I2066
sS'footprints'
p2072
I2067
sS'outlets'
p2073
I2068
sS'chance'
p2074
I2069
sS'pacify'
p2075
I2070
sS'veil'
p2076
I4000
sS'vein'
p2077
I2072
sS'dolphins'
p2078
I2073
sS'ghost'
p2079
I2074
sS'stunt'
p2080
I2075
sS'eon'
p2081
I2076
sS'rule'
p2082
I2077
sS'compete'
p2083
I2078
sS'rural'
p2084
I2079
sS'wetlands'
p2085
I2080
sS'ciao'
p2086
I2081
sS'magnetic'
p2087
I2082
sS'bc'
p2088
I1461
sS'mansion'
p2089
I2083
sS'saved'
p2090
I2084
sS'votes'
p2091
I2085
sS'chinese'
p2092
I7299
sS'punjab'
p2093
I2086
sS'tickle'
p2094
I2087
sS'bike'
p2095
I2088
sS'messenger'
p2096
I5846
sS'wildcat'
p2097
I355
sS'wreath'
p2098
I7300
sS'geology'
p2099
I2092
sS'compassion'
p2100
I2093
sS'aurora'
p2101
I2094
sS'replication'
p2102
I2095
sS'mania'
p2103
I2096
sS'closeup'
p2104
I2097
sS'rec'
p2105
I5849
sS'electronics'
p2106
I5850
sS'chapel'
p2107
I2101
sS'tickets'
p2108
I2102
sS'pinch'
p2109
I2103
sS'samurai'
p2110
I2104
sS'casinos'
p2111
I2105
sS'poppy'
p2112
I2106
sS'chew'
p2113
I2107
sS'paperback'
p2114
I2108
sS'machined'
p2115
I2109
sS'horn'
p2116
I2110
sS'chef'
p2117
I2111
sS'rigorous'
p2118
I2112
sS'panda'
p2119
I2113
sS'stardom'
p2120
I2114
sS'near'
p2121
I4427
sS'above'
p2122
I2116
sS'toll'
p2123
I2117
sS'churches'
p2124
I2118
sS'missed'
p2125
I7285
sS'polarity'
p2126
I7309
sS'kindred'
p2127
I2120
sS'pluto'
p2128
I2121
sS'bangkok'
p2129
I2122
sS'protection'
p2130
I2123
sS'pursuit'
p2131
I2124
sS'daughter'
p2132
I2125
sS'items'
p2133
I2126
sS'employees'
p2134
I2127
sS'icons'
p2135
I2128
sS'smoke'
p2136
I2129
sS'secure'
p2137
I2130
sS'spooky'
p2138
I2131
sS'darlings'
p2139
I2132
sS'schweitzer'
p2140
I2133
sS'highly'
p2141
I2134
sS'glance'
p2142
I2135
sS'total'
p2143
I2136
sS'bra'
p2144
I2137
sS'sarah'
p2145
I2138
sS'plot'
p2146
I2139
sS'plow'
p2147
I2140
sS'alligator'
p2148
I2141
sS'liftoff'
p2149
I2142
sS'sweater'
p2150
I2143
sS'gloss'
p2151
I2144
sS'bundles'
p2152
I2145
sS'negative'
p2153
I2146
sS'indiana'
p2154
I2147
sS'blueberry'
p2155
I2148
sS'award'
p2156
I2149
sS'scribble'
p2157
I2150
sS'bunnies'
p2158
I2151
sS'word'
p2159
I2152
sS'presentation'
p2160
I7318
sS'work'
p2161
I2154
sS'eclipse'
p2162
I2155
sS'worm'
p2163
I2156
sS'worn'
p2164
I2157
sS'ere'
p2165
I2158
sS'cuddle'
p2166
I2159
sS'era'
p2167
I2160
sS'mechanic'
p2168
I2161
sS'elbow'
p2169
I2162
sS'crackers'
p2170
I2163
sS'cans'
p2171
I4439
sS'serpent'
p2172
I2165
sS'nozzle'
p2173
I2166
sS'india'
p2174
I2167
sS'uaw'
p2175
I2168
sS'conditioner'
p2176
I367
sS'recovery'
p2177
I2170
sS'provide'
p2178
I2171
sS'mouse'
p2179
I2172
sS'song'
p2180
I5688
sS'nuts'
p2181
I2174
sS'boats'
p2182
I2175
sS'ordinary'
p2183
I2176
sS'beach'
p2184
I2177
sS'offshore'
p2185
I2178
sS'pizza'
p2186
I2179
sS'lan'
p2187
I2180
sS'fever'
p2188
I2181
sS'lad'
p2189
I2182
sS'reamer'
p2190
I431
sS'lag'
p2191
I2184
sS'lab'
p2192
I2185
sS'lac'
p2193
I2186
sS'lay'
p2194
I2187
sS'law'
p2195
I2188
sS'lap'
p2196
I2189
sS'headdress'
p2197
I2190
sS'elusive'
p2198
I2191
sS'homeowners'
p2199
I2192
sS'greek'
p2200
I2193
sS'south'
p2201
I5868
sS'ambulance'
p2202
I2195
sS'order'
p2203
I2196
sS'popsicle'
p2204
I2197
sS'office'
p2205
I2198
sS'muffin'
p2206
I2199
sS'zen'
p2207
I2200
sS'stencils'
p2208
I2201
sS'japan'
p2209
I2202
sS'nets'
p2210
I2203
sS'ticket'
p2211
I7328
sS'somewhere'
p2212
I2205
sS'highlights'
p2213
I2206
sS'denver'
p2214
I2207
sS'tinkle'
p2215
I2208
sS'production'
p2216
I2209
sS'acupuncture'
p2217
I2210
sS'shear'
p2218
I2211
sS'split'
p2219
I372
sS'versus'
p2220
I2213
sS'then'
p2221
I2214
sS'them'
p2222
I2215
sS'thee'
p2223
I2216
sS'safe'
p2224
I2217
sS'scene'
p2225
I1761
sS'break'
p2226
I2219
sS'band'
p2227
I2220
sS'bang'
p2228
I2221
sS'giraffe'
p2229
I2222
sS'they'
p2230
I2223
sS'thew'
p2231
I2224
sS'lifelong'
p2232
I2226
sS'bank'
p2233
I2227
sS'bread'
p2234
I2228
sS'crock'
p2235
I2229
sS'gallows'
p2236
I2230
sS'classified'
p2237
I2231
sS'backgrounds'
p2238
I2232
sS'l'
p2239
I2233
sS'rocks'
p2240
I2234
sS'puppet'
p2241
I5874
sS'cartography'
p2242
I2236
sS'logs'
p2243
I2237
sS'dumping'
p2244
I2239
sS'crimes'
p2245
I2240
sS'sled'
p2246
I2241
sS'nigerian'
p2247
I2242
sS'hosted'
p2248
I2243
sS'logo'
p2249
I2244
sS'flock'
p2250
I2245
sS'network'
p2251
I2246
sS'forts'
p2252
I2247
sS'trainers'
p2253
I2248
sS'fellowship'
p2254
I2249
sS'daniel'
p2255
I2250
sS'amethyst'
p2256
I2251
sS'engrave'
p2257
I2252
sS'medicine'
p2258
I2253
sS'barrier'
p2259
I2254
sS'standard'
p2260
I2255
sS'vets'
p2261
I2256
sS'mullet'
p2262
I2257
sS'lollipop'
p2263
I2258
sS'certified'
p2264
I2259
sS'bummers'
p2265
I2260
sS'created'
p2266
I2261
sS'caprice'
p2267
I2262
sS'lousy'
p2268
I2263
sS'renew'
p2269
I2264
sS'incorporated'
p2270
I2265
sS'footsteps'
p2271
I2266
sS'render'
p2272
I5304
sS'another'
p2273
I2268
sS'comic'
p2274
I2269
sS'electronic'
p2275
I2270
sS'timothy'
p2276
I2271
sS'agriculture'
p2277
I1736
sS'rated'
p2278
I2272
sS'elevator'
p2279
I2273
sS'compromise'
p2280
I2274
sS'inflate'
p2281
I2276
sS'john'
p2282
I2277
sS'dogs'
p2283
I2278
sS'kiwi'
p2284
I2279
sS'emblem'
p2285
I2280
sS'happily'
p2286
I2281
sS'rejected'
p2287
I2282
sS'honolulu'
p2288
I2283
sS'toronto'
p2289
I2284
sS'guild'
p2290
I2285
sS'target'
p2291
I2286
sS'tavern'
p2292
I2287
sS'hike'
p2293
I2288
sS'presto'
p2294
I4471
sS'scenes'
p2295
I2290
sS'cabin'
p2296
I5881
sS'historical'
p2297
I2291
sS'design'
p2298
I7344
sS'hacking'
p2299
I2292
sS'powers'
p2300
I2293
sS'malady'
p2301
I2294
sS'enchanted'
p2302
I2296
sS'contents'
p2303
I2297
sS'strength'
p2304
I2298
sS'laden'
p2305
I2299
sS'convenient'
p2306
I2300
sS'rome'
p2307
I2301
sS'snowflake'
p2308
I2302
sS'circles'
p2309
I2303
sS'gravy'
p2310
I2304
sS'maiden'
p2311
I2305
sS'germany'
p2312
I2306
sS'autopsy'
p2313
I2307
sS'grave'
p2314
I2308
sS'sub'
p2315
I7350
sS'nostrils'
p2316
I2310
sS'duckling'
p2317
I2311
sS'alumni'
p2318
I2312
sS'swamp'
p2319
I2313
sS'bracket'
p2320
I2314
sS'sun'
p2321
I7351
sS'voting'
p2322
I2316
sS'notion'
p2323
I2317
sS'reserve'
p2324
I2318
sS'lewis'
p2325
I2319
sS'bimbo'
p2326
I2320
sS'infrared'
p2327
I2321
sS'knightly'
p2328
I2322
sS'chandelier'
p2329
I2323
sS'keywords'
p2330
I2324
sS'enjoyed'
p2331
I2325
sS'sharks'
p2332
I2326
sS'geyser'
p2333
I2327
sS'guidance'
p2334
I2328
sS'screening'
p2335
I2329
sS'goalie'
p2336
I2330
sS'rectangle'
p2337
I2331
sS'personality'
p2338
I2332
sS'do'
p2339
I2333
sS'dj'
p2340
I2334
sS'di'
p2341
I2335
sS'de'
p2342
I2336
sS'db'
p2343
I2337
sS'dc'
p2344
I2338
sS'leisure'
p2345
I2339
sS'da'
p2346
I2340
sS'ecologist'
p2347
I2341
sS'haunted'
p2348
I2342
sS'nasty'
p2349
I2343
sS'dr'
p2350
I2344
sS'dp'
p2351
I2345
sS'runs'
p2352
I2346
sS'guns'
p2353
I7357
sS'emu'
p2354
I2348
sS'emt'
p2355
I2349
sS'gears'
p2356
I2350
sS'equivalents'
p2357
I2351
sS'steak'
p2358
I2352
sS'steal'
p2359
I2353
sS'steam'
p2360
I2354
sS'secretary'
p2361
I2355
sS'etudes'
p2362
I2356
sS'inns'
p2363
I2357
sS'observer'
p2364
I2358
sS'observed'
p2365
I2359
sS'cattle'
p2366
I2360
sS'christian'
p2367
I7360
sS'sketches'
p2368
I3227
sS'techniques'
p2369
I2362
sS'draws'
p2370
I2363
sS'away'
p2371
I2364
sS'symmetric'
p2372
I2365
sS'cooperation'
p2373
I2366
sS'previous'
p2374
I2367
sS'we'
p2375
I2368
sS'wa'
p2376
I2369
sS'wi'
p2377
I2370
sS'ww'
p2378
I2371
sS'wv'
p2379
I2372
sS'broncos'
p2380
I394
sS'convertible'
p2381
I2374
sS'wy'
p2382
I2375
sS'kitchen'
p2383
I2376
sS'bras'
p2384
I2377
sS'cop'
p2385
I2378
sS'climate'
p2386
I2379
sS'sunflower'
p2387
I2380
sS'cow'
p2388
I2381
sS'coy'
p2389
I2382
sS'ill'
p2390
I2383
sS'ncaa'
p2391
I2384
sS'cog'
p2392
I2385
sS'receiver'
p2393
I2386
sS'con'
p2394
I2387
sS'tough'
p2395
I2388
sS'spear'
p2396
I2389
sS'royal'
p2397
I2390
sS'tony'
p2398
I2391
sS'jays'
p2399
I2392
sS'headlights'
p2400
I2393
sS'belize'
p2401
I2394
sS'engines'
p2402
I2395
sS'infotainment'
p2403
I2396
sS'chimneys'
p2404
I2397
sS'noel'
p2405
I2398
sS'scarecrow'
p2406
I2399
sS'leech'
p2407
I2400
sS'families'
p2408
I2401
sS'easy'
p2409
I2402
sS'attacked'
p2410
I2403
sS'hacksaw'
p2411
I2404
sS'applied'
p2412
I2405
sS'physician'
p2413
I2406
sS'east'
p2414
I401
sS'air'
p2415
I2408
sS'aim'
p2416
I2409
sS'aid'
p2417
I2410
sS'property'
p2418
I2411
sS'inspired'
p2419
I2412
sS'launched'
p2420
I2413
sS'defending'
p2421
I1790
sS'cylinder'
p2422
I2415
sS'beetles'
p2423
I2416
sS'cony'
p2424
I2417
sS'sticker'
p2425
I2418
sS'sting'
p2426
I2419
sS'skipping'
p2427
I2420
sS'tissue'
p2428
I2421
sS'brake'
p2429
I2422
sS'cone'
p2430
I2423
sS'hebrew'
p2431
I2424
sS'warthog'
p2432
I2425
sS'confirmed'
p2433
I2427
sS'drawers'
p2434
I2428
sS'perform'
p2435
I2429
sS'plates'
p2436
I2430
sS'bunny'
p2437
I2431
sS'wheel'
p2438
I2432
sS'independent'
p2439
I2433
sS'plating'
p2440
I2434
sS'hang'
p2441
I2435
sS'evil'
p2442
I2436
sS'hand'
p2443
I2437
sS'norwegian'
p2444
I2438
sS'redneck'
p2445
I2439
sS'vermont'
p2446
I2440
sS'kept'
p2447
I2441
sS'thy'
p2448
I2442
sS'dallas'
p2449
I5900
sS'drip'
p2450
I2444
sS'mia'
p2451
I5901
sS'client'
p2452
I2446
sS'goals'
p2453
I8102
sS'the'
p2454
I2447
sS'musical'
p2455
I2448
sS'epa'
p2456
I2449
sS'mingle'
p2457
I2450
sS'kale'
p2458
I2451
sS'athletic'
p2459
I2452
sS'photo'
p2460
I2453
sS'chickweed'
p2461
I2454
sS'mid'
p2462
I5903
sS'quotes'
p2463
I2456
sS'goggles'
p2464
I2457
sS'thanks'
p2465
I2458
sS'victim'
p2466
I2459
sS'boars'
p2467
I2460
sS'hills'
p2468
I2461
sS'photographer'
p2469
I2462
sS'josh'
p2470
I2463
sS'hilly'
p2471
I2464
sS'wright'
p2472
I2465
sS'alchemy'
p2473
I2466
sS'belongs'
p2474
I2467
sS'board'
p2475
I2468
sS'plasma'
p2476
I2469
sS'viking'
p2477
I2470
sS'mayo'
p2478
I2471
sS'caps'
p2479
I2472
sS'arab'
p2480
I2473
sS'fusion'
p2481
I2474
sS'barge'
p2482
I2475
sS'picasso'
p2483
I2476
sS'designers'
p2484
I2477
sS'cooler'
p2485
I2478
sS'lily'
p2486
I1802
sS'grizzly'
p2487
I2480
sS'soap'
p2488
I1803
sS'securities'
p2489
I2482
sS'night'
p2490
I2483
sS'security'
p2491
I2484
sS'cirrus'
p2492
I2485
sS'antique'
p2493
I2486
sS'calculus'
p2494
I1805
sS'snub'
p2495
I7380
sS'lashes'
p2496
I2489
sS'trainee'
p2497
I2490
sS'born'
p2498
I2491
sS'couture'
p2499
I2492
sS'productions'
p2500
I2493
sS'critique'
p2501
I2494
sS'orchid'
p2502
I2495
sS'humor'
p2503
I2496
sS'comments'
p2504
I2497
sS'peek'
p2505
I2498
sS'marketing'
p2506
I2500
sS'pose'
p2507
I2501
sS'peed'
p2508
I2502
sS'graduated'
p2509
I2503
sS'post'
p2510
I2504
sS'properties'
p2511
I2505
sS'trophy'
p2512
I2506
sS'dines'
p2513
I2507
sS'diner'
p2514
I2508
sS'coral'
p2515
I2509
sS'months'
p2516
I2510
sS'horizon'
p2517
I2511
sS'cherish'
p2518
I2512
sS'octopus'
p2519
I2513
sS'treble'
p2520
I2514
sS'dilemma'
p2521
I2515
sS'mantle'
p2522
I2516
sS'float'
p2523
I2517
sS'gearing'
p2524
I2519
sS'prisoner'
p2525
I5908
sS'loin'
p2526
I2521
sS'theorists'
p2527
I2522
sS'ole'
p2528
I2523
sS'strangely'
p2529
I2524
sS'wan'
p2530
I2525
sS'wag'
p2531
I2526
sS'bookend'
p2532
I2527
sS'fight'
p2533
I2528
sS'conservation'
p2534
I2529
sS'way'
p2535
I2530
sS'quirky'
p2536
I2531
sS'was'
p2537
I2532
sS'war'
p2538
I2533
sS'cloth'
p2539
I7784
sS'lowest'
p2540
I2534
sS'peninsula'
p2541
I2535
sS'elderly'
p2542
I4517
sS'sailboats'
p2543
I2537
sS'true'
p2544
I2538
sS'reset'
p2545
I2539
sS'isis'
p2546
I2540
sS'input'
p2547
I1429
sS'reproductive'
p2548
I2541
sS'crystal'
p2549
I2542
sS'plymouth'
p2550
I2543
sS'anew'
p2551
I2545
sS'winery'
p2552
I2546
sS'vatican'
p2553
I2547
sS'emotional'
p2554
I2548
sS'hotter'
p2555
I2549
sS'moore'
p2556
I2550
sS'aorta'
p2557
I2551
sS'inclusive'
p2558
I2552
sS'frederick'
p2559
I5911
sS'umpire'
p2560
I2554
sS'trombone'
p2561
I2555
sS'saltwater'
p2562
I2556
sS'prayer'
p2563
I2557
sS'archive'
p2564
I2558
sS'baguette'
p2565
I2559
sS'reality'
p2566
I2560
sS'shrine'
p2567
I2561
sS'holding'
p2568
I2562
sS'test'
p2569
I2563
sS'welcome'
p2570
I2564
sS'update'
p2571
I2565
sS'enthused'
p2572
I2566
sS'scores'
p2573
I2567
sS'dissipation'
p2574
I2568
sS'omega'
p2575
I2569
sS'faze'
p2576
I2570
sS'modules'
p2577
I2572
sS'together'
p2578
I2573
sS'beds'
p2579
I2574
sS'loyal'
p2580
I2575
sS'reception'
p2581
I2576
sS'stethoscope'
p2582
I7394
sS'lineup'
p2583
I2578
sS'songs'
p2584
I2579
sS'concept'
p2585
I2580
sS'dance'
p2586
I2581
sS'consul'
p2587
I2582
sS'global'
p2588
I2583
sS'silverware'
p2589
I2584
sS'switches'
p2590
I2585
sS'pachyderm'
p2591
I2586
sS'supplement'
p2592
I2587
sS'battle'
p2593
I2588
sS'toothpick'
p2594
I2589
sS'devotee'
p2595
I2590
sS'grape'
p2596
I2591
sS'zone'
p2597
I2592
sS'mallet'
p2598
I2593
sS'flask'
p2599
I2594
sS'graph'
p2600
I2595
sS'hump'
p2601
I2596
sS'flash'
p2602
I2597
sS'tush'
p2603
I2598
sS'tusk'
p2604
I2599
sS'terror'
p2605
I2600
sS'southwest'
p2606
I2601
sS'rebecca'
p2607
I2602
sS'division'
p2608
I2603
sS'supported'
p2609
I5918
sS'brownie'
p2610
I2605
sS'automobiles'
p2611
I2606
sS'sunbathe'
p2612
I2607
sS'kitten'
p2613
I2608
sS'blast'
p2614
I2609
sS'margarita'
p2615
I2610
sS'respiratory'
p2616
I2611
sS'presented'
p2617
I2612
sS'turns'
p2618
I2613
sS'gui'
p2619
I2614
sS'gun'
p2620
I2615
sS'gum'
p2621
I2616
sS'p'
p2622
I2617
sS'q'
p2623
I2618
sS'steeple'
p2624
I2619
sS'guy'
p2625
I2620
sS'upper'
p2626
I2621
sS'revolution'
p2627
I2622
sS'bedroom'
p2628
I1826
sS'discover'
p2629
I2624
sS'affiliation'
p2630
I2625
sS'thinker'
p2631
I2626
sS'prairie'
p2632
I2627
sS'cosy'
p2633
I2628
sS'cargo'
p2634
I2629
sS'uniform'
p2635
I2630
sS'wheelies'
p2636
I2631
sS'camisole'
p2637
I2632
sS'inauguration'
p2638
I2633
sS'muslim'
p2639
I2634
sS'goldfish'
p2640
I2635
sS'suckers'
p2641
I2636
sS'hoops'
p2642
I2637
sS'teacher'
p2643
I2638
sS'change'
p2644
I2639
sS'buck'
p2645
I2640
sS'incoming'
p2646
I2641
sS'flames'
p2647
I2642
sS'ekg'
p2648
I2643
sS'trial'
p2649
I2644
sS'franklin'
p2650
I2645
sS'pillow'
p2651
I2646
sS'homecoming'
p2652
I2647
sS'burp'
p2653
I2648
sS'puffer'
p2654
I2649
sS'churchill'
p2655
I2650
sS'hiking'
p2656
I2652
sS'lending'
p2657
I2653
sS'sincerely'
p2658
I2654
sS'snowboard'
p2659
I2655
sS'crawlers'
p2660
I2656
sS'brokerage'
p2661
I2657
sS'illumination'
p2662
I2658
sS'fbi'
p2663
I2659
sS'market'
p2664
I2660
sS'jan'
p2665
I1832
sS'headstone'
p2666
I4540
sS'live'
p2667
I2663
sS'conquistador'
p2668
I2664
sS'angels'
p2669
I2665
sS'matador'
p2670
I2666
sS'entrance'
p2671
I2667
sS'club'
p2672
I2668
sS'envelope'
p2673
I2669
sS'slinky'
p2674
I2670
sS'jag'
p2675
I1836
sS'graphic'
p2676
I2672
sS'skaters'
p2677
I2673
sS'defeats'
p2678
I2674
sS'car'
p2679
I2675
sS'cap'
p2680
I2676
sS'cat'
p2681
I2677
sS'can'
p2682
I2678
sS'cam'
p2683
I2679
sS'cal'
p2684
I2680
sS'lubricant'
p2685
I2681
sS'cad'
p2686
I2682
sS'spy'
p2687
I2683
sS'saith'
p2688
I2684
sS'december'
p2689
I2685
sS'chip'
p2690
I2686
sS'chit'
p2691
I2687
sS'topic'
p2692
I2688
sS'skydiving'
p2693
I2689
sS'fortunes'
p2694
I2690
sS'abort'
p2695
I2691
sS'chin'
p2696
I2692
sS'purity'
p2697
I2693
sS'anteater'
p2698
I2694
sS'penumbra'
p2699
I1842
sS'clothing'
p2700
I2696
sS'spf'
p2701
I2697
sS'discussion'
p2702
I2698
sS'means'
p2703
I1843
sS'trophies'
p2704
I2700
sS'write'
p2705
I2701
sS'lobe'
p2706
I5933
sS'economy'
p2707
I2703
sS'product'
p2708
I2704
sS'staircase'
p2709
I2705
sS'dive'
p2710
I2706
sS'southern'
p2711
I2708
sS'produce'
p2712
I2709
sS'commit'
p2713
I4547
sS'goal'
p2714
I7412
sS'noses'
p2715
I2712
sS'wanderings'
p2716
I2713
sS'whenever'
p2717
I2714
sS'candles'
p2718
I2715
sS'trumpets'
p2719
I2716
sS'futures'
p2720
I2717
sS'corona'
p2721
I2718
sS'clover'
p2722
I6889
sS'typical'
p2723
I2719
sS'serving'
p2724
I2720
sS'freckles'
p2725
I2721
sS'haircut'
p2726
I2722
sS'brain'
p2727
I2723
sS'cold'
p2728
I2724
sS'braid'
p2729
I2725
sS'birds'
p2730
I2726
sS'cola'
p2731
I2727
sS'ethic'
p2732
I2728
sS'tending'
p2733
I2729
sS'curly'
p2734
I2730
sS'curls'
p2735
I2731
sS'yams'
p2736
I2732
sS'forms'
p2737
I2733
sS'window'
p2738
I2734
sS'tiara'
p2739
I2735
sS'centenary'
p2740
I2736
sS'nod'
p2741
I2737
sS'rake'
p2742
I2738
sS'tails'
p2743
I2739
sS'slacks'
p2744
I2740
sS'half'
p2745
I2741
sS'not'
p2746
I2742
sS'nov'
p2747
I2743
sS'now'
p2748
I2744
sS'hall'
p2749
I2745
sS'halo'
p2750
I2746
sS'down'
p2751
I2747
sS'january'
p2752
I4182
sS'drop'
p2753
I2750
sS'stockholm'
p2754
I2751
sS'h'
p2755
I1848
sS'cliffs'
p2756
I2753
sS'concerts'
p2757
I2754
sS'em'
p2758
I2755
sS'domain'
p2759
I2756
sS'en'
p2760
I2757
sS'eh'
p2761
I2758
sS'challenged'
p2762
I2759
sS'yeah'
p2763
I2760
sS'ec'
p2764
I2761
sS'goose'
p2765
I2762
sS'fires'
p2766
I2763
sS'eyebrow'
p2767
I5947
sS'year'
p2768
I2765
sS'eu'
p2769
I2766
sS'wavelength'
p2770
I2767
sS'happen'
p2771
I2768
sS'calling'
p2772
I5948
sS'monitors'
p2773
I2770
sS'amusement'
p2774
I2771
sS'er'
p2775
I2772
sS'album'
p2776
I2773
sS'shown'
p2777
I2774
sS'space'
p2778
I2775
sS'looking'
p2779
I2776
sS'opener'
p2780
I2777
sS'rational'
p2781
I2778
sS'happenings'
p2782
I2779
sS'shows'
p2783
I2780
sS'rebuilding'
p2784
I2781
sS'thong'
p2785
I2782
sS'cars'
p2786
I2783
sS'cart'
p2787
I2784
sS'diagnostic'
p2788
I2785
sS'lecterns'
p2789
I2786
sS'rebel'
p2790
I2787
sS'marina'
p2791
I2788
sS'obligation'
p2792
I2789
sS'marine'
p2793
I2790
sS'card'
p2794
I2791
sS'care'
p2795
I2792
sS'reflect'
p2796
I7418
sS'tomahawk'
p2797
I2794
sS'transition'
p2798
I2795
sS'clarion'
p2799
I2796
sS'british'
p2800
I2797
sS'invitation'
p2801
I2798
sS'nonprofit'
p2802
I2799
sS'lambda'
p2803
I2800
sS'blind'
p2804
I2801
sS'romania'
p2805
I2802
sS'initial'
p2806
I2803
sS'shears'
p2807
I2804
sS'champions'
p2808
I8125
sS'yourself'
p2809
I2805
sS'rink'
p2810
I2806
sS'impossible'
p2811
I2807
sS'message'
p2812
I2808
sS'zap'
p2813
I2810
sS'size'
p2814
I2811
sS'sheep'
p2815
I2812
sS'sheet'
p2816
I2813
sS'silent'
p2817
I2814
sS'bookmark'
p2818
I2815
sS'caught'
p2819
I2816
sS'yin'
p2820
I2817
sS'tusks'
p2821
I2818
sS'cognac'
p2822
I6537
sS'checker'
p2823
I2819
sS'tragic'
p2824
I2820
sS'puddle'
p2825
I5952
sS'friend'
p2826
I2822
sS'larder'
p2827
I2823
sS'nutrition'
p2828
I2824
sS'mostly'
p2829
I2825
sS'that'
p2830
I2826
sS'asymmetric'
p2831
I2827
sS'transverse'
p2832
I2828
sS'flowers'
p2833
I2829
sS'kabob'
p2834
I2830
sS'than'
p2835
I2831
sS'greenwood'
p2836
I2832
sS'television'
p2837
I2833
sS'recruit'
p2838
I2834
sS'karate'
p2839
I2835
sS'apples'
p2840
I2836
sS'fruits'
p2841
I2837
sS'mommie'
p2842
I2838
sS'browser'
p2843
I2839
sS'rooks'
p2844
I2840
sS'angel'
p2845
I2841
sS'dynamically'
p2846
I2842
sS'slam'
p2847
I2843
sS'slag'
p2848
I2844
sS'breakfast'
p2849
I2845
sS'windsor'
p2850
I2846
sS'form'
p2851
I4565
sS'veteran'
p2852
I2848
sS'snout'
p2853
I2849
sS'equipment'
p2854
I2850
sS'online'
p2855
I2851
sS'chopsticks'
p2856
I2852
sS'santiago'
p2857
I2853
sS'price'
p2858
I2854
sS'pharaoh'
p2859
I2855
sS'america'
p2860
I2856
sS'forever'
p2861
I2857
sS'dream'
p2862
I2858
sS'tooth'
p2863
I2859
sS'toots'
p2864
I2860
sS'mri'
p2865
I2861
sS'professional'
p2866
I2862
sS'abraham'
p2867
I2863
sS'leicester'
p2868
I2864
sS'german'
p2869
I2865
sS'scoreboard'
p2870
I2866
sS'fifty'
p2871
I2867
sS'discovered'
p2872
I2868
sS'maine'
p2873
I2869
sS'fifth'
p2874
I2870
sS'ground'
p2875
I2871
sS'gnat'
p2876
I2872
sS'testis'
p2877
I2873
sS'upgrade'
p2878
I2874
sS'ratio'
p2879
I2875
sS'stair'
p2880
I2876
sS'title'
p2881
I2877
sS'stained'
p2882
I2878
sS'saints'
p2883
I2879
sS'only'
p2884
I2880
sS'stain'
p2885
I2881
sS'interstate'
p2886
I2882
sS'cannon'
p2887
I2883
sS'samuel'
p2888
I2884
sS'truly'
p2889
I2885
sS'baghdad'
p2890
I2886
sS'celebrate'
p2891
I2887
sS'leather'
p2892
I2888
sS'wiener'
p2893
I3201
sS'losers'
p2894
I2890
sS'husband'
p2895
I2891
sS'bulgaria'
p2896
I2892
sS'concert'
p2897
I2893
sS'burst'
p2898
I2894
sS'spore'
p2899
I2895
sS'asleep'
p2900
I2896
sS'sport'
p2901
I2897
sS'concern'
p2902
I2898
sS'palette'
p2903
I2899
sS'pomade'
p2904
I2900
sS'glaze'
p2905
I2901
sS'whippet'
p2906
I2902
sS'materials'
p2907
I2903
sS'colours'
p2908
I2904
sS'skyscraper'
p2909
I2905
sS'gazette'
p2910
I2906
sS'herbal'
p2911
I2907
sS'import'
p2912
I2908
sS'islam'
p2913
I7440
sS'notice'
p2914
I2910
sS'pluck'
p2915
I813
sS'blame'
p2916
I2912
sS'article'
p2917
I2913
sS'cleave'
p2918
I2914
sS'monk'
p2919
I2915
sS'mont'
p2920
I2917
sS'comet'
p2921
I2918
sS'wheels'
p2922
I2919
sS'comes'
p2923
I2920
sS'heron'
p2924
I2921
sS'madness'
p2925
I2922
sS'overview'
p2926
I2923
sS'jeans'
p2927
I2924
sS'dispatch'
p2928
I2925
sS'learning'
p2929
I2926
sS'pigtails'
p2930
I2927
sS'brats'
p2931
I2928
sS'cares'
p2932
I2929
sS'informed'
p2933
I2930
sS'cared'
p2934
I2931
sS'dangers'
p2935
I2933
sS'foggy'
p2936
I2935
sS'ruby'
p2937
I2936
sS'argent'
p2938
I2937
sS'prehistoric'
p2939
I2938
sS'these'
p2940
I2939
sS'might'
p2941
I7449
sS'chinatown'
p2942
I2941
sS'trick'
p2943
I2942
sS'editorial'
p2944
I2943
sS'biped'
p2945
I2944
sS'cherub'
p2946
I1094
sS'soil'
p2947
I2946
sS'bias'
p2948
I2947
sS'stewardess'
p2949
I2948
sS'donating'
p2950
I1143
sS'kenya'
p2951
I1144
sS'hens'
p2952
I2951
sS'develop'
p2953
I2953
sS'media'
p2954
I2954
sS'ceo'
p2955
I2955
sS'figurine'
p2956
I2956
sS'document'
p2957
I2957
sS'noble'
p2958
I2958
sS'finish'
p2959
I2959
sS'centuries'
p2960
I2960
sS'arctic'
p2961
I2961
sS'foam'
p2962
I2962
sS'cymbal'
p2963
I2963
sS'fruit'
p2964
I2964
sS'favorites'
p2965
I2965
sS'volley'
p2966
I1878
sS'alligators'
p2967
I2967
sS'tradition'
p2968
I2968
sS'mentally'
p2969
I2969
sS'amps'
p2970
I5561
sS'theater'
p2971
I1256
sS'bagpipes'
p2972
I2971
sS'page'
p2973
I7765
sS'severe'
p2974
I2972
sS'breeze'
p2975
I2973
sS'joystick'
p2976
I2975
sS'livestock'
p2977
I2976
sS'noah'
p2978
I2977
sS'battleship'
p2979
I1300
sS'dancers'
p2980
I2979
sS'neon'
p2981
I2980
sS'valuable'
p2982
I2981
sS'maternity'
p2983
I2982
sS'greetings'
p2984
I2983
sS'touch'
p2985
I2984
sS'speed'
p2986
I2985
sS'death'
p2987
I2986
sS'thinking'
p2988
I2987
sS'desktop'
p2989
I2988
sS'lender'
p2990
I2989
sS'verse'
p2991
I2990
sS'treatment'
p2992
I2991
sS'role'
p2993
I2992
sS'swim'
p2994
I1384
sS'ream'
p2995
I2994
sS'psi'
p2996
I1392
sS'frown'
p2997
I2996
sS'spectacular'
p2998
I2997
sS'larva'
p2999
I2998
sS'read'
p3000
I1400
sS'ruler'
p3001
I3000
sS'stools'
p3002
I3001
sS'early'
p3003
I3002
sS'listening'
p3004
I3003
sS'using'
p3005
I3004
sS'lady'
p3006
I3005
sS'rear'
p3007
I3006
sS'ruled'
p3008
I3007
sS'fortune'
p3009
I3008
sS'postcard'
p3010
I3009
sS'greeting'
p3011
I3010
sS'blackberry'
p3012
I3011
sS'twelve'
p3013
I3012
sS'apartments'
p3014
I3013
sS'hacks'
p3015
I3014
sS'putter'
p3016
I3015
sS'squirt'
p3017
I3016
sS'nuggets'
p3018
I3017
sS'assembly'
p3019
I1586
sS'business'
p3020
I3019
sS'chefs'
p3021
I3020
sS'credits'
p3022
I3021
sS'assemble'
p3023
I3022
sS'bazaar'
p3024
I3023
sS'throw'
p3025
I3024
sS'central'
p3026
I3025
sS'hiatus'
p3027
I3026
sS'gums'
p3028
I3027
sS'fell'
p3029
I4604
sS'wolf'
p3030
I3029
sS'chow'
p3031
I3030
sS'backup'
p3032
I3031
sS'arabic'
p3033
I6014
sS'heater'
p3034
I3032
sS'earring'
p3035
I3033
sS'elementary'
p3036
I3034
sS'your'
p3037
I3035
sS'stare'
p3038
I3036
sS'log'
p3039
I3037
sS'prepare'
p3040
I3038
sS'area'
p3041
I3039
sS'stark'
p3042
I3040
sS'start'
p3043
I3041
sS'lop'
p3044
I3042
sS'cats'
p3045
I3043
sS'low'
p3046
I3044
sS'lot'
p3047
I1775
sS'billion'
p3048
I4607
sS'pitcher'
p3049
I3047
sS'posterior'
p3050
I3048
sS'recoil'
p3051
I3049
sS'cottage'
p3052
I3050
sS'trying'
p3053
I3051
sS'hottest'
p3054
I3052
sS'fraud'
p3055
I3053
sS'dominican'
p3056
I3054
sS'comics'
p3057
I3055
sS'bucket'
p3058
I3056
sS'native'
p3059
I5784
sS'toner'
p3060
I3057
sS'wrestlers'
p3061
I3058
sS'scanner'
p3062
I3059
sS'sunroof'
p3063
I3060
sS'moved'
p3064
I3061
sS'macbeth'
p3065
I3062
sS'reliability'
p3066
I3063
sS'mover'
p3067
I3064
sS'moves'
p3068
I3065
sS'hospitals'
p3069
I3066
sS'nerd'
p3070
I3067
sS'cabinets'
p3071
I3068
sS'antenna'
p3072
I3069
sS'storage'
p3073
I3070
sS'anarchy'
p3074
I3235
sS'evenings'
p3075
I3072
sS'milking'
p3076
I3073
sS'mathematics'
p3077
I1897
sS'you'
p3078
I3075
sS'houseboat'
p3079
I3076
sS'poor'
p3080
I3077
sS'polar'
p3081
I3078
sS'poop'
p3082
I3079
sS'drift'
p3083
I2004
sS'carpenter'
p3084
I3081
sS'podium'
p3085
I3082
sS'peak'
p3086
I3083
sS'coverage'
p3087
I3084
sS'pooh'
p3088
I3085
sS'pool'
p3089
I3086
sS'building'
p3090
I3087
sS'moonlight'
p3091
I3088
sS'bolton'
p3092
I3089
sS'strings'
p3093
I3090
sS'mannequin'
p3094
I1906
sS'skeleton'
p3095
I3092
sS'pointing'
p3096
I3093
sS'peacock'
p3097
I3094
sS'bull'
p3098
I5999
sS'month'
p3099
I3096
sS'unrest'
p3100
I3097
sS'messy'
p3101
I3098
sS'religious'
p3102
I3099
sS'carpet'
p3103
I3100
sS'griffin'
p3104
I3101
sS'corps'
p3105
I3102
sS'auckland'
p3106
I3103
sS'gymnast'
p3107
I3104
sS'wyoming'
p3108
I3105
sS'dumpling'
p3109
I3106
sS'foster'
p3110
I3107
sS'sustain'
p3111
I3108
sS'lakewood'
p3112
I3109
sS'very'
p3113
I3110
sS'horror'
p3114
I3111
sS'robes'
p3115
I3112
sS'screwdriver'
p3116
I3113
sS'parry'
p3117
I3114
sS'decide'
p3118
I3116
sS'heaven'
p3119
I3117
sS'louis'
p3120
I3118
sS'manager'
p3121
I3119
sS'random'
p3122
I6453
sS'circuit'
p3123
I7491
sS'study'
p3124
I3120
sS'anal'
p3125
I3121
sS'locomotive'
p3126
I3123
sS'ass'
p3127
I3124
sS'cookies'
p3128
I3125
sS'fence'
p3129
I3126
sS'streets'
p3130
I3127
sS'orgasm'
p3131
I3128
sS'inert'
p3132
I3129
sS'conscience'
p3133
I3130
sS'primer'
p3134
I4622
sS'consumers'
p3135
I3132
sS'protractor'
p3136
I3133
sS'unicycle'
p3137
I3134
sS'learned'
p3138
I3135
sS'friday'
p3139
I7480
sS'iran'
p3140
I3136
sS'ballet'
p3141
I3137
sS'answers'
p3142
I3138
sS'tracks'
p3143
I3139
sS'pub'
p3144
I3140
sS'trunk'
p3145
I3141
sS'iraq'
p3146
I3142
sS'arena'
p3147
I3144
sS'invitational'
p3148
I3145
sS'ultra'
p3149
I1915
sS'ahead'
p3150
I3147
sS'vegetarian'
p3151
I3148
sS'creepy'
p3152
I3149
sS'fired'
p3153
I8317
sS'soldier'
p3154
I3150
sS'advertising'
p3155
I3151
sS'trainer'
p3156
I3152
sS'family'
p3157
I3153
sS'put'
p3158
I3154
sS'toys'
p3159
I3155
sS'globes'
p3160
I3156
sS'minotaur'
p3161
I3157
sS'takes'
p3162
I3158
sS'revelation'
p3163
I3160
sS'contains'
p3164
I3161
sS'mysterious'
p3165
I3162
sS'injury'
p3166
I3163
sS'chestnut'
p3167
I3164
sS'turbo'
p3168
I3165
sS'squid'
p3169
I6010
sS'regrettable'
p3170
I3166
sS'grill'
p3171
I3167
sS'thorns'
p3172
I4755
sS'coalition'
p3173
I3168
sS'nine'
p3174
I3169
sS'situp'
p3175
I3170
sS'history'
p3176
I3171
sS'ions'
p3177
I3172
sS'visage'
p3178
I3173
sS'boycott'
p3179
I3174
sS'henpeck'
p3180
I3175
sS'cows'
p3181
I3176
sS'species'
p3182
I3177
sS'hamburgers'
p3183
I3178
sS'surpasses'
p3184
I3179
sS'wigs'
p3185
I3180
sS'fr'
p3186
I3181
sS'tried'
p3187
I3182
sS'scouts'
p3188
I3183
sS'invasion'
p3189
I3184
sS'horizontal'
p3190
I3185
sS'fl'
p3191
I3186
sS'fm'
p3192
I3187
sS'a'
p3193
I3188
sS'bugs'
p3194
I3189
sS'anytime'
p3195
I3190
sS'dread'
p3196
I3191
sS'banks'
p3197
I3192
sS'egg'
p3198
I3193
sS'crafty'
p3199
I3194
sS'chicks'
p3200
I3195
sS'help'
p3201
I3196
sS'slouch'
p3202
I3197
sS'urine'
p3203
I3198
sS'soon'
p3204
I3199
sS'cyclists'
p3205
I3200
sS'thermal'
p3206
I2889
sS'committee'
p3207
I3202
sS'hell'
p3208
I3203
sS'clarinet'
p3209
I3204
sS'dummies'
p3210
I3205
sS'tutti'
p3211
I7382
sS'verne'
p3212
I1931
sS'miter'
p3213
I3207
sS'mites'
p3214
I3208
sS'systems'
p3215
I3209
sS'founders'
p3216
I3210
sS'lira'
p3217
I3211
sS'fool'
p3218
I3212
sS'evening'
p3219
I3213
sS'yo'
p3220
I3214
sS'food'
p3221
I3215
sS'musket'
p3222
I3216
sS'cupcake'
p3223
I3217
sS'aphasia'
p3224
I3218
sS'commodore'
p3225
I3219
sS'foot'
p3226
I3220
sS'ninja'
p3227
I3221
sS'nectar'
p3228
I4636
sS'develops'
p3229
I7817
sS'stopper'
p3230
I3223
sS'bless'
p3231
I3224
sS'fairy'
p3232
I3225
sS'trailer'
p3233
I3226
sS'flashbacks'
p3234
I5095
sS'stamen'
p3235
I6021
sS'taft'
p3236
I3229
sS'pamper'
p3237
I3230
sS'jaws'
p3238
I3231
sS'blank'
p3239
I7503
sS'infinity'
p3240
I1935
sS'beyond'
p3241
I3234
sS'event'
p3242
I3071
sS'bikers'
p3243
I3236
sS'visions'
p3244
I3267
sS'since'
p3245
I3238
sS'safety'
p3246
I3239
sS'issue'
p3247
I3240
sS'dunk'
p3248
I3241
sS'corporal'
p3249
I7505
sS'pun'
p3250
I3242
sS'asp'
p3251
I3243
sS'bass'
p3252
I3244
sS'taco'
p3253
I7960
sS'dirt'
p3254
I3245
sS'straightener'
p3255
I3246
sS'labs'
p3256
I3247
sS'houses'
p3257
I3248
sS'reason'
p3258
I3249
sS'base'
p3259
I3250
sS'coastline'
p3260
I3251
sS'ask'
p3261
I3252
sS'ash'
p3262
I3253
sS'pup'
p3263
I3254
sS'bash'
p3264
I3255
sS'launch'
p3265
I3257
sS'lemur'
p3266
I3258
sS'terrible'
p3267
I3259
sS'caption'
p3268
I3260
sS'american'
p3269
I3261
sS'daisy'
p3270
I3262
sS'syria'
p3271
I3263
sS'assign'
p3272
I3264
sS'ponies'
p3273
I8029
sS'elder'
p3274
I3265
sS'mist'
p3275
I3266
sS'warts'
p3276
I3237
sS'maple'
p3277
I3268
sS'arbitration'
p3278
I3269
sS'horse'
p3279
I3270
sS'pinned'
p3280
I3271
sS'collage'
p3281
I3272
sS'station'
p3282
I3273
sS'mosaic'
p3283
I1944
sS'banana'
p3284
I3275
sS'selling'
p3285
I3276
sS'storm'
p3286
I7513
sS'jordan'
p3287
I3279
sS'alphabets'
p3288
I3280
sS'translation'
p3289
I3281
sS'sign'
p3290
I3282
sS'grocery'
p3291
I3283
sS'grew'
p3292
I3284
sS'kindly'
p3293
I3285
sS'bride'
p3294
I3286
sS'bobsled'
p3295
I3287
sS'toward'
p3296
I3288
sS'builder'
p3297
I6032
sS'crescent'
p3298
I3290
sS'mickey'
p3299
I3291
sS'kart'
p3300
I3292
sS'chipmunk'
p3301
I3293
sS'juicy'
p3302
I3294
sS'juice'
p3303
I3295
sS'my'
p3304
I6280
sS'lid'
p3305
I3296
sS'lie'
p3306
I3297
sS'koala'
p3307
I3298
sS'empowered'
p3308
I3299
sS'scotland'
p3309
I3300
sS'officers'
p3310
I3301
sS'camouflage'
p3311
I3302
sS'labour'
p3312
I3303
sS'lip'
p3313
I3304
sS'towards'
p3314
I3305
sS'quote'
p3315
I3306
sS'eater'
p3316
I3307
sS'anniversary'
p3317
I7353
sS'sponsored'
p3318
I3308
sS'approved'
p3319
I3309
sS'salary'
p3320
I3310
sS'archery'
p3321
I3311
sS'seton'
p3322
I3312
sS'mobile'
p3323
I3313
sS'clear'
p3324
I3314
sS'outhouse'
p3325
I3315
sS'clean'
p3326
I3316
sS'bower'
p3327
I3317
sS'physics'
p3328
I3318
sS'surrey'
p3329
I3319
sS'cowgirl'
p3330
I3320
sS'celebrities'
p3331
I3321
sS'barbell'
p3332
I3322
sS'booze'
p3333
I3323
sS'crayon'
p3334
I3324
sS'coaster'
p3335
I6040
sS'copyright'
p3336
I3326
sS'duncan'
p3337
I3327
sS'justice'
p3338
I3328
sS'scooter'
p3339
I3329
sS'flights'
p3340
I3330
sS'pretty'
p3341
I3332
sS'circle'
p3342
I3333
sS'darwin'
p3343
I3334
sS'porcupine'
p3344
I3335
sS'dominant'
p3345
I3336
sS'trees'
p3346
I3338
sS'famous'
p3347
I3339
sS'feels'
p3348
I3340
sS'strum'
p3349
I3341
sS'basement'
p3350
I3342
sS'chimney'
p3351
I3343
sS'catches'
p3352
I3344
sS'catcher'
p3353
I3345
sS'badge'
p3354
I3346
sS'perfume'
p3355
I3347
sS'gloves'
p3356
I3348
sS'scanning'
p3357
I3349
sS'prague'
p3358
I3350
sS'outboard'
p3359
I3351
sS'culture'
p3360
I3352
sS'horoscopes'
p3361
I3353
sS'howler'
p3362
I3354
sS'portrait'
p3363
I3355
sS'locals'
p3364
I3356
sS'pictures'
p3365
I3357
sS'wow'
p3366
I3358
sS'pisa'
p3367
I3359
sS'grocer'
p3368
I3360
sS'thongs'
p3369
I3361
sS'wok'
p3370
I3362
sS'woe'
p3371
I3363
sS'stalk'
p3372
I3364
sS'conditions'
p3373
I3365
sS'pictured'
p3374
I3366
sS'piss'
p3375
I3367
sS'missing'
p3376
I3368
sS'craters'
p3377
I3369
sS'spray'
p3378
I3370
sS'mentoring'
p3379
I3371
sS'sailboard'
p3380
I3873
sS'hubcap'
p3381
I3373
sS'zipper'
p3382
I3374
sS'both'
p3383
I3375
sS'mega'
p3384
I3376
sS'secrets'
p3385
I3377
sS'wed'
p3386
I1964
sS'forgotten'
p3387
I3914
sS'shortcake'
p3388
I3380
sS'stoplight'
p3389
I3381
sS'hackers'
p3390
I3382
sS'headed'
p3391
I3383
sS'battery'
p3392
I3384
sS'proton'
p3393
I3385
sS'climbers'
p3394
I3386
sS'bench'
p3395
I6054
sS'horticulture'
p3396
I3388
sS'stamp'
p3397
I3389
sS'ladybug'
p3398
I7387
sS'territory'
p3399
I3390
sS'empty'
p3400
I4023
sS'collectible'
p3401
I3392
sS'crack'
p3402
I1970
sS'else'
p3403
I3394
sS'anthony'
p3404
I3395
sS'lives'
p3405
I3396
sS'liver'
p3406
I3397
sS'independence'
p3407
I6363
sS'loom'
p3408
I3399
sS'look'
p3409
I3400
sS'governor'
p3410
I3401
sS'rope'
p3411
I3402
sS'pace'
p3412
I3403
sS'while'
p3413
I4105
sS'smart'
p3414
I6059
sS'fleet'
p3415
I3406
sS'animated'
p3416
I3407
sS'guide'
p3417
I3408
sS'loop'
p3418
I3409
sS'pack'
p3419
I3410
sS'petal'
p3420
I3411
sS'embroidered'
p3421
I3412
sS'ready'
p3422
I3413
sS'sorter'
p3423
I3414
sS'albany'
p3424
I3415
sS'shaw'
p3425
I3416
sS'grant'
p3426
I3417
sS'noose'
p3427
I8280
sS'belong'
p3428
I3418
sS'grand'
p3429
I3419
sS'conflict'
p3430
I3420
sS'hallway'
p3431
I3421
sS'used'
p3432
I4235
sS'lawyers'
p3433
I3423
sS'fatty'
p3434
I3424
sS'bonus'
p3435
I3425
sS'cleaning'
p3436
I3426
sS'yeltsin'
p3437
I3427
sS'plugs'
p3438
I3428
sS'brussels'
p3439
I3429
sS'database'
p3440
I3430
sS'poland'
p3441
I3431
sS'aflutter'
p3442
I3432
sS'chronicles'
p3443
I3433
sS'ambassador'
p3444
I3434
sS'chore'
p3445
I3435
sS'cave'
p3446
I3436
sS'desk'
p3447
I1976
sS'quarters'
p3448
I3437
sS'umbra'
p3449
I3438
sS'taiwan'
p3450
I3439
sS'afro'
p3451
I3440
sS'retirement'
p3452
I3441
sS'cemetery'
p3453
I4394
sS'shortcut'
p3454
I3443
sS'cherries'
p3455
I3444
sS'houdini'
p3456
I3445
sS'elves'
p3457
I3446
sS'march'
p3458
I3447
sS'radiator'
p3459
I3448
sS'showing'
p3460
I3449
sS'gamy'
p3461
I3450
sS'game'
p3462
I3451
sS'wings'
p3463
I3452
sS'bout'
p3464
I7447
sS'submission'
p3465
I3453
sS'pillar'
p3466
I3454
sS'strife'
p3467
I3455
sS'chairs'
p3468
I1981
sS'popular'
p3469
I4536
sS'lamppost'
p3470
I4679
sS'kazoo'
p3471
I7065
sS'mathematical'
p3472
I3460
sS'sketch'
p3473
I3461
sS'parade'
p3474
I3462
sS'whitecap'
p3475
I3463
sS'creation'
p3476
I3464
sS'some'
p3477
I3465
sS'urgent'
p3478
I3466
sS'lips'
p3479
I3467
sS'economic'
p3480
I3468
sS'histology'
p3481
I3469
sS'mustang'
p3482
I3470
sS'delivered'
p3483
I3471
sS'schmaltz'
p3484
I3472
sS'appalachia'
p3485
I3473
sS'pounding'
p3486
I3474
sS'hotels'
p3487
I3475
sS'trotters'
p3488
I3476
sS'run'
p3489
I4649
sS'achy'
p3490
I3478
sS'rub'
p3491
I3479
sS'eruption'
p3492
I7561
sS'processing'
p3493
I3481
sS'lakes'
p3494
I4662
sS'stem'
p3495
I4663
sS'jazzy'
p3496
I3484
sS'step'
p3497
I3485
sS'stew'
p3498
I3486
sS'raspberry'
p3499
I3487
sS'wealth'
p3500
I3488
sS'shine'
p3501
I3489
sS'faith'
p3502
I3490
sS'hinge'
p3503
I3491
sS'bridle'
p3504
I3492
sS'italian'
p3505
I6076
sS'shiny'
p3506
I3494
sS'block'
p3507
I3495
sS'seeing'
p3508
I3496
sS'dude'
p3509
I4683
sS'rollerblade'
p3510
I3498
sS'pentagon'
p3511
I3500
sS'rolls'
p3512
I3501
sS'connector'
p3513
I4686
sS'statistics'
p3514
I3503
sS'renewal'
p3515
I3504
sS'placing'
p3516
I3505
sS'syllabus'
p3517
I3506
sS'consultation'
p3518
I3507
sS'heritage'
p3519
I3508
sS'sinai'
p3520
I3509
sS'registered'
p3521
I3511
sS'calgary'
p3522
I577
sS'mulberry'
p3523
I3513
sS'toucan'
p3524
I3514
sS'hail'
p3525
I1521
sS'fishy'
p3526
I4885
sS'russian'
p3527
I3517
sS'injection'
p3528
I3518
sS'hares'
p3529
I4894
sS'info'
p3530
I3520
sS'skull'
p3531
I3521
sS'loving'
p3532
I3522
sS'adults'
p3533
I3523
sS'pilgrim'
p3534
I3524
sS'kidney'
p3535
I3525
sS'cotton'
p3536
I3526
sS'nab'
p3537
I3527
sS'aeronautical'
p3538
I3528
sS'resistances'
p3539
I3529
sS'application'
p3540
I3530
sS'preachers'
p3541
I3531
sS'forge'
p3542
I3532
sS'aprons'
p3543
I3533
sS'manhattan'
p3544
I3534
sS'smiles'
p3545
I3535
sS'draw'
p3546
I3536
sS'calculating'
p3547
I3537
sS'kansas'
p3548
I3538
sS'visits'
p3549
I3539
sS'william'
p3550
I3540
sS'militants'
p3551
I5089
sS'velocity'
p3552
I3542
sS'reservation'
p3553
I3543
sS'formal'
p3554
I3544
sS'earphones'
p3555
I3545
sS'e'
p3556
I3547
sS'blend'
p3557
I3548
sS'required'
p3558
I3549
sS'orbit'
p3559
I3550
sS'depth'
p3560
I3551
sS'berries'
p3561
I3552
sS'tweeter'
p3562
I3553
sS'nuns'
p3563
I3554
sS'farms'
p3564
I3555
sS'gd'
p3565
I3556
sS'gb'
p3566
I3557
sS'ga'
p3567
I3558
sS'go'
p3568
I3559
sS'barbecue'
p3569
I3560
sS'psycho'
p3570
I3561
sS'emboss'
p3571
I3562
sS'compact'
p3572
I3563
sS'lubricants'
p3573
I3564
sS'wizard'
p3574
I3565
sS'stave'
p3575
I5220
sS'suits'
p3576
I3567
sS'shack'
p3577
I3568
sS'does'
p3578
I1998
sS'windsurfer'
p3579
I5239
sS'friendly'
p3580
I3571
sS'virtuous'
p3581
I3572
sS'venice'
p3582
I3573
sS'outerwear'
p3583
I3574
sS'kitty'
p3584
I3575
sS'wave'
p3585
I5279
sS'thermos'
p3586
I3577
sS'cellular'
p3587
I3578
sS'mauritania'
p3588
I3579
sS'stiff'
p3589
I3580
sS'positions'
p3590
I3581
sS'michael'
p3591
I3582
sS'hive'
p3592
I3583
sS'verdict'
p3593
I3585
sS'booty'
p3594
I3586
sS'bogota'
p3595
I3587
sS'boots'
p3596
I3588
sS'jump'
p3597
I3589
sS'noise'
p3598
I6094
sS'booth'
p3599
I3591
sS'download'
p3600
I3592
sS'cartel'
p3601
I3593
sS'click'
p3602
I3594
sS'reviews'
p3603
I4702
sS'sausage'
p3604
I3596
sS'cupcakes'
p3605
I3597
sS'plays'
p3606
I3598
sS'paintings'
p3607
I3599
sS'wallet'
p3608
I4703
sS'celt'
p3609
I3601
sS'colonel'
p3610
I3602
sS'edifice'
p3611
I5429
sS'vampire'
p3612
I3604
sS'cell'
p3613
I3605
sS'poles'
p3614
I3606
sS'shoreline'
p3615
I5461
sS'commercial'
p3616
I3608
sS'brooch'
p3617
I3609
sS'fifteenth'
p3618
I3610
sS'raspberries'
p3619
I3611
sS'scythe'
p3620
I3612
sS'pancake'
p3621
I3613
sS'galleon'
p3622
I3614
sS'convert'
p3623
I3615
sS'northern'
p3624
I3616
sS'walkman'
p3625
I3617
sS'faeries'
p3626
I3618
sS'fathering'
p3627
I3619
sS'closeout'
p3628
I3620
sS'products'
p3629
I3621
sS'kathmandu'
p3630
I3622
sS'gene'
p3631
I3623
sS'salvation'
p3632
I3624
sS'patents'
p3633
I3625
sS'wig'
p3634
I3626
sS'clark'
p3635
I3627
sS'nearest'
p3636
I982
sS'win'
p3637
I3629
sS'pinkies'
p3638
I3630
sS'manage'
p3639
I3631
sS'singing'
p3640
I3632
sS'cloud'
p3641
I3633
sS'tubular'
p3642
I5842
sS'crap'
p3643
I3634
sS'snoop'
p3644
I3635
sS'camera'
p3645
I3636
sS'crab'
p3646
I3637
sS'vehicle'
p3647
I3638
sS'cheeks'
p3648
I3639
sS'started'
p3649
I3640
sS'tennis'
p3650
I4561
sS'missile'
p3651
I3641
sS'starter'
p3652
I3642
sS'whisky'
p3653
I3643
sS'crosses'
p3654
I3644
sS'salad'
p3655
I3645
sS'ride'
p3656
I3646
sS'donut'
p3657
I3647
sS'arches'
p3658
I3648
sS'archer'
p3659
I3649
sS'meet'
p3660
I3650
sS'drops'
p3661
I3651
sS'control'
p3662
I3652
sS'beijing'
p3663
I3653
sS'links'
p3664
I3654
sS'halloween'
p3665
I3655
sS'suds'
p3666
I3656
sS'triangle'
p3667
I7589
sS'skirt'
p3668
I3658
sS'egret'
p3669
I3659
sS'poetry'
p3670
I3660
sS'bandana'
p3671
I3661
sS'dune'
p3672
I3662
sS'farm'
p3673
I3663
sS'jiffy'
p3674
I3664
sS'arbor'
p3675
I3665
sS'cutlery'
p3676
I3666
sS'advocates'
p3677
I3667
sS'encyclopedia'
p3678
I3668
sS'oslo'
p3679
I3669
sS'bakers'
p3680
I3670
sS'software'
p3681
I2014
sS'bathing'
p3682
I3672
sS'astronomical'
p3683
I3673
sS'ens'
p3684
I6296
sS'sperm'
p3685
I3674
sS'pine'
p3686
I4722
sS'cruise'
p3687
I3676
sS'embezzle'
p3688
I3677
sS'subversive'
p3689
I3678
sS'helicopters'
p3690
I3679
sS'blake'
p3691
I3680
sS'outer'
p3692
I3681
sS'broom'
p3693
I3682
sS'notebooks'
p3694
I3683
sS'brook'
p3695
I3684
sS'housewife'
p3696
I3685
sS'emails'
p3697
I7594
sS'insulator'
p3698
I3687
sS'sword'
p3699
I4726
sS'auto'
p3700
I3689
sS'fluff'
p3701
I3690
sS'pins'
p3702
I3691
sS'snorkel'
p3703
I3692
sS'stout'
p3704
I3693
sS'hands'
p3705
I3694
sS'front'
p3706
I3695
sS'handy'
p3707
I3696
sS'literacy'
p3708
I3697
sS'masters'
p3709
I3698
sS'university'
p3710
I3699
sS'testicle'
p3711
I4730
sS'slide'
p3712
I3701
sS'mode'
p3713
I3702
sS'crossing'
p3714
I3703
sS'lung'
p3715
I2019
sS'nationals'
p3716
I3705
sS'commonwealth'
p3717
I3706
sS'globe'
p3718
I3707
sS'mas'
p3719
I3708
sS'inverted'
p3720
I3709
sS'seesaw'
p3721
I3710
sS'designer'
p3722
I3711
sS'sands'
p3723
I3712
sS'measure'
p3724
I3713
sS'sandy'
p3725
I3714
sS'ricks'
p3726
I3715
sS'actor'
p3727
I3716
sS'armor'
p3728
I3717
sS'longhorns'
p3729
I3718
sS'may'
p3730
I4735
sS'playground'
p3731
I3720
sS'obsess'
p3732
I3721
sS'umbrella'
p3733
I3722
sS'delegates'
p3734
I3723
sS'undo'
p3735
I3724
sS'alchemists'
p3736
I3725
sS'princess'
p3737
I3726
sS'geometry'
p3738
I3727
sS'route'
p3739
I3728
sS'florida'
p3740
I3729
sS'mac'
p3741
I4737
sS'times'
p3742
I3731
sS'keen'
p3743
I3732
sS'brides'
p3744
I6114
sS'austin'
p3745
I3734
sS'buckle'
p3746
I6115
sS'mad'
p3747
I4738
sS'prospective'
p3748
I3737
sS'powerful'
p3749
I3738
sS'improving'
p3750
I3739
sS'rectifying'
p3751
I3740
sS'stump'
p3752
I7604
sS'quality'
p3753
I3742
sS'conga'
p3754
I3743
sS'management'
p3755
I3744
sS'privacy'
p3756
I3745
sS'bears'
p3757
I3746
sS'journals'
p3758
I3747
sS'adopted'
p3759
I3748
sS'aviator'
p3760
I4743
sS'sumatra'
p3761
I3750
sS'ankle'
p3762
I3751
sS'visages'
p3763
I3752
sS'beard'
p3764
I3753
sS'configure'
p3765
I3754
sS'lists'
p3766
I3755
sS'sachem'
p3767
I3756
sS'fuzzy'
p3768
I3757
sS'waist'
p3769
I3758
sS'photograph'
p3770
I3759
sS'bed'
p3771
I3760
sS'bee'
p3772
I3761
sS'claim'
p3773
I3762
sS'firework'
p3774
I3763
sS'spurt'
p3775
I3764
sS'providing'
p3776
I3765
sS'spurs'
p3777
I3766
sS'bard'
p3778
I7609
sS'showbiz'
p3779
I3768
sS'tabu'
p3780
I3769
sS'sundown'
p3781
I3770
sS'close'
p3782
I3771
sS'need'
p3783
I3772
sS'assurances'
p3784
I3773
sS'rotor'
p3785
I3774
sS'microphone'
p3786
I3775
sS'sprinkles'
p3787
I3776
sS'cranes'
p3788
I3777
sS'able'
p3789
I3778
sS'pushups'
p3790
I3779
sS'battles'
p3791
I3780
sS'makeover'
p3792
I3781
sS'tactic'
p3793
I3782
sS'so'
p3794
I3783
sS'visor'
p3795
I3785
sS'brand'
p3796
I6127
sS'medals'
p3797
I3787
sS'lectures'
p3798
I3788
sS'african'
p3799
I3789
sS'camper'
p3800
I3790
sS'parenting'
p3801
I3791
sS'moths'
p3802
I3792
sS'montana'
p3803
I3793
sS'connected'
p3804
I3794
sS'awe'
p3805
I3795
sS'cases'
p3806
I7836
sS'gallery'
p3807
I3796
sS'cellphone'
p3808
I3797
sS'stereo'
p3809
I3798
sS'urn'
p3810
I3799
sS'upset'
p3811
I3800
sS'talk'
p3812
I3801
sS'databases'
p3813
I3802
sS'plague'
p3814
I6131
sS'skunk'
p3815
I3804
sS'tolkien'
p3816
I3805
sS'crate'
p3817
I3806
sS'anyway'
p3818
I3807
sS'soldiers'
p3819
I3808
sS'shoes'
p3820
I4759
sS'envy'
p3821
I3810
sS'based'
p3822
I3811
sS'sheriff'
p3823
I3812
sS'winner'
p3824
I3813
sS'brighten'
p3825
I3814
sS'employer'
p3826
I3815
sS'arabian'
p3827
I3816
sS'fuel'
p3828
I3817
sS'b'
p3829
I7592
sS'dodge'
p3830
I3818
sS'michigan'
p3831
I3819
sS'overall'
p3832
I3820
sS'joint'
p3833
I3821
sS'probably'
p3834
I3822
sS'tba'
p3835
I3823
sS'sassy'
p3836
I3824
sS'marvels'
p3837
I3825
sS'evolution'
p3838
I3826
sS'trucks'
p3839
I3827
sS'wellness'
p3840
I3828
sS'tuned'
p3841
I3829
sS'she'
p3842
I3830
sS'tuner'
p3843
I3831
sS'grab'
p3844
I3832
sS'grad'
p3845
I3833
sS'spotted'
p3846
I3834
sS'hardwood'
p3847
I3835
sS'pitch'
p3848
I4763
sS'orphan'
p3849
I3837
sS'canine'
p3850
I3838
sS'computer'
p3851
I3839
sS'theocracy'
p3852
I3840
sS'humane'
p3853
I3841
sS'danger'
p3854
I3628
sS'stats'
p3855
I3842
sS'nightmare'
p3856
I3843
sS'beading'
p3857
I3844
sS'calhoun'
p3858
I3845
sS'state'
p3859
I3846
sS'tyre'
p3860
I3847
sS'tens'
p3861
I3848
sS'juggle'
p3862
I3849
sS'pinata'
p3863
I8143
sS'tent'
p3864
I3850
sS'ken'
p3865
I3851
sS'attention'
p3866
I7625
sS'importance'
p3867
I3853
sS'buckets'
p3868
I3854
sS'efficiency'
p3869
I3855
sS'key'
p3870
I3856
sS'police'
p3871
I4766
sS'poorer'
p3872
I3858
sS'distribution'
p3873
I2047
sS'thank'
p3874
I3860
sS'hits'
p3875
I3861
sS'defense'
p3876
I7607
sS'sniff'
p3877
I3862
sS'limits'
p3878
I3863
sS'career'
p3879
I3864
sS'shingle'
p3880
I3865
sS'aqua'
p3881
I3866
sS'minds'
p3882
I3867
sS'admit'
p3883
I3868
sS'jersey'
p3884
I3870
sS'tuesday'
p3885
I3871
sS'harmonic'
p3886
I3872
sS'genre'
p3887
I3372
sS'kings'
p3888
I3874
sS'poem'
p3889
I3875
sS'industrials'
p3890
I3876
sS'tread'
p3891
I3877
sS'aligning'
p3892
I3878
sS'yaw'
p3893
I3879
sS'allover'
p3894
I3880
sS'cent'
p3895
I3881
sS'quiz'
p3896
I3882
sS'treat'
p3897
I3883
sS'eraser'
p3898
I3884
sS'poet'
p3899
I3885
sS'uplifted'
p3900
I3886
sS'chandigarh'
p3901
I3887
sS'shoulders'
p3902
I3888
sS'league'
p3903
I3889
sS'topless'
p3904
I6149
sS'spaniel'
p3905
I3891
sS'controller'
p3906
I3892
sS'ours'
p3907
I4773
sS'kicks'
p3908
I3894
sS'smoking'
p3909
I3895
sS'swastika'
p3910
I3896
sS'glossary'
p3911
I3897
sS'chalk'
p3912
I3898
sS'demo'
p3913
I3899
sS'surface'
p3914
I3900
sS'bucks'
p3915
I3901
sS'lambs'
p3916
I3902
sS'orbital'
p3917
I3903
sS'capture'
p3918
I3904
sS'balloon'
p3919
I3905
sS'strange'
p3920
I3906
sS'speaker'
p3921
I3907
sS'northwest'
p3922
I3908
sS'eclectic'
p3923
I3909
sS'party'
p3924
I3910
sS'joist'
p3925
I3911
sS'fireman'
p3926
I3912
sS'ankh'
p3927
I3913
sS'buzz'
p3928
I3379
sS'frequently'
p3929
I3915
sS'spree'
p3930
I3916
sS'magician'
p3931
I3917
sS'keep'
p3932
I6287
sS'poultry'
p3933
I3918
sS'rift'
p3934
I3919
sS'weld'
p3935
I3920
sS'surfboard'
p3936
I3921
sS'lunch'
p3937
I3922
sS'ama'
p3938
I3923
sS'well'
p3939
I3924
sS'welt'
p3940
I3925
sS'awning'
p3941
I3927
sS'modeler'
p3942
I3928
sS'restore'
p3943
I3929
sS'safari'
p3944
I3930
sS'savannah'
p3945
I3931
sS'arriving'
p3946
I3932
sS'distant'
p3947
I3933
sS'laurel'
p3948
I3934
sS'skill'
p3949
I3935
sS'parchment'
p3950
I3936
sS'density'
p3951
I3937
sS'peninsular'
p3952
I3938
sS'nato'
p3953
I3939
sS'riverside'
p3954
I3940
sS'balloons'
p3955
I3941
sS'kick'
p3956
I3942
sS'oar'
p3957
I6162
sS'sonic'
p3958
I3943
sS'utah'
p3959
I3944
sS'propelled'
p3960
I3945
sS'historic'
p3961
I3946
sS'whatever'
p3962
I3947
sS'propeller'
p3963
I3948
sS'intersection'
p3964
I3949
sS'loss'
p3965
I3950
sS'lincoln'
p3966
I3951
sS'lost'
p3967
I3952
sS'candy'
p3968
I3953
sS'lose'
p3969
I3954
sS'dresser'
p3970
I6164
sS'dido'
p3971
I652
sS'shed'
p3972
I3957
sS'brazing'
p3973
I3958
sS'library'
p3974
I3959
sS'frisbee'
p3975
I3960
sS'cleveland'
p3976
I3961
sS'home'
p3977
I3962
sS'peter'
p3978
I3963
sS'scales'
p3979
I5574
sS'overlay'
p3980
I3964
sS'broad'
p3981
I3965
sS'kettle'
p3982
I3966
sS'fountain'
p3983
I3967
sS'mutation'
p3984
I3968
sS'sweepstakes'
p3985
I3969
sS'seacoast'
p3986
I3970
sS'catwalk'
p3987
I3971
sS'medieval'
p3988
I3972
sS'reaching'
p3989
I3973
sS'goatee'
p3990
I3974
sS'journal'
p3991
I3975
sS'pp'
p3992
I7649
sS'scots'
p3993
I7021
sS'balkans'
p3994
I3977
sS'prohibited'
p3995
I3978
sS'freedom'
p3996
I3979
sS'sinister'
p3997
I3980
sS'realistic'
p3998
I8275
sS'madame'
p3999
I3981
sS'rodeo'
p4000
I3982
sS'beige'
p4001
I3983
sS'puppies'
p4002
I3984
sS'tongue'
p4003
I3985
sS'tideland'
p4004
I3986
sS'stakes'
p4005
I3987
sS'reptile'
p4006
I3988
sS'pistols'
p4007
I3989
sS'final'
p4008
I3990
sS'glenn'
p4009
I3991
sS'primal'
p4010
I3992
sS'washington'
p4011
I3993
sS'mushrooms'
p4012
I3994
sS'ultrasound'
p4013
I3995
sS'artists'
p4014
I3996
sS'jubilee'
p4015
I3997
sS'networking'
p4016
I3998
sS'additional'
p4017
I3999
sS'mastermind'
p4018
I2071
sS'museum'
p4019
I4001
sS'elephants'
p4020
I4002
sS'imperial'
p4021
I4003
sS'accountant'
p4022
I4004
sS'notices'
p4023
I4005
sS'cricket'
p4024
I4006
sS'north'
p4025
I4007
sS'recorder'
p4026
I4008
sS'hr'
p4027
I4009
sS'hazardous'
p4028
I4010
sS'neutral'
p4029
I4011
sS'hi'
p4030
I4012
sS'ho'
p4031
I4013
sS'ear'
p4032
I4014
sS'ph'
p4033
I5455
sS'he'
p4034
I4016
sS'converter'
p4035
I4017
sS'cells'
p4036
I4018
sS'hosting'
p4037
I4019
sS'pinprick'
p4038
I4020
sS'carriage'
p4039
I4021
sS'stories'
p4040
I4022
sS'delights'
p4041
I3391
sS'cello'
p4042
I4024
sS'piece'
p4043
I4025
sS'display'
p4044
I4026
sS'mechanics'
p4045
I4027
sS'marketplace'
p4046
I4028
sS'sanders'
p4047
I4029
sS'universal'
p4048
I4030
sS'penny'
p4049
I4031
sS'kisser'
p4050
I4032
sS'utensils'
p4051
I4033
sS'crystals'
p4052
I4034
sS'erie'
p4053
I4035
sS'chromosome'
p4054
I4036
sS'balcony'
p4055
I4037
sS'tick'
p4056
I4038
sS'algeria'
p4057
I7668
sS'ingredients'
p4058
I4040
sS'fencing'
p4059
I4041
sS'tailoring'
p4060
I4042
sS'aclu'
p4061
I4043
sS'meteor'
p4062
I4044
sS'chemist'
p4063
I4045
sS'star'
p4064
I4046
sS'stay'
p4065
I4047
sS'stag'
p4066
I4048
sS'stab'
p4067
I4049
sS'tailgate'
p4068
I4050
sS'friends'
p4069
I4051
sS'appoint'
p4070
I4052
sS'duckbill'
p4071
I4053
sS'atheist'
p4072
I4054
sS'aided'
p4073
I4055
sS'limited'
p4074
I6178
sS'dynamic'
p4075
I4057
sS'protest'
p4076
I4058
sS'asian'
p4077
I4059
sS'captain'
p4078
I4060
sS'esplanade'
p4079
I7186
sS'whose'
p4080
I4061
sS'buddy'
p4081
I4062
sS'aug'
p4082
I4063
sS'swan'
p4083
I4064
sS'disability'
p4084
I4065
sS'presents'
p4085
I4066
sS'swat'
p4086
I4067
sS'trousers'
p4087
I4068
sS'recycle'
p4088
I4069
sS'teaching'
p4089
I4070
sS'sorry'
p4090
I4071
sS'fists'
p4091
I4072
sS'updated'
p4092
I4073
sS'rescue'
p4093
I4074
sS'void'
p4094
I4075
sS'railways'
p4095
I4076
sS'flashpoint'
p4096
I4077
sS'vase'
p4097
I4078
sS'wainwright'
p4098
I4079
sS'updates'
p4099
I4080
sS'confederate'
p4100
I4081
sS'alpine'
p4101
I4082
sS'baking'
p4102
I4083
sS'holiness'
p4103
I142
sS'crops'
p4104
I4085
sS'companies'
p4105
I4086
sS'solution'
p4106
I4087
sS'vector'
p4107
I4088
sS'washout'
p4108
I171
sS'ups'
p4109
I4090
sS'clothes'
p4110
I4091
sS'force'
p4111
I4092
sS'quilt'
p4112
I4093
sS'japanese'
p4113
I4094
sS'across'
p4114
I4095
sS'gator'
p4115
I4096
sS'cactus'
p4116
I4097
sS'quill'
p4117
I4098
sS'even'
p4118
I4099
sS'preferences'
p4119
I4100
sS'wreck'
p4120
I4101
sS'integrity'
p4121
I4102
sS'panama'
p4122
I4103
sS'orchestra'
p4123
I4104
sS'bikini'
p4124
I3404
sS'asia'
p4125
I4106
sS'lights'
p4126
I4107
sS'sunder'
p4127
I4108
sS'new'
p4128
I278
sS'tips'
p4129
I4110
sS'helmets'
p4130
I4111
sS'statehood'
p4131
I4112
sS'men'
p4132
I306
sS'drew'
p4133
I4114
sS'met'
p4134
I4116
sS'feeding'
p4135
I6188
sS'active'
p4136
I4118
sS'cardboard'
p4137
I4119
sS'dry'
p4138
I4120
sS'luther'
p4139
I4121
sS'alchemist'
p4140
I4122
sS'economics'
p4141
I4123
sS'piercing'
p4142
I4124
sS'hooters'
p4143
I4125
sS'credit'
p4144
I4126
sS'rafting'
p4145
I4127
sS'eyebrows'
p4146
I4128
sS'fantastic'
p4147
I4129
sS'heeled'
p4148
I4130
sS'digitally'
p4149
I4131
sS'campaign'
p4150
I4132
sS'mobility'
p4151
I4133
sS'reagan'
p4152
I4134
sS'county'
p4153
I4135
sS'jackets'
p4154
I4136
sS'handlebar'
p4155
I4137
sS'landscape'
p4156
I4138
sS'ore'
p4157
I1040
sS'army'
p4158
I4140
sS'watering'
p4159
I4141
sS'arms'
p4160
I4142
sS'barnacle'
p4161
I4143
sS'call'
p4162
I459
sS'type'
p4163
I4145
sS'tell'
p4164
I4146
sS'calf'
p4165
I4147
sS'lungs'
p4166
I4148
sS'composite'
p4167
I4149
sS'oscar'
p4168
I4150
sS'wart'
p4169
I4151
sS'wars'
p4170
I4152
sS'warp'
p4171
I4153
sS'warn'
p4172
I4154
sS'berlin'
p4173
I4156
sS'warm'
p4174
I4157
sS'adult'
p4175
I4158
sS'ware'
p4176
I4159
sS'blindfold'
p4177
I4160
sS'rook'
p4178
I4161
sS'room'
p4179
I4162
sS'rights'
p4180
I4163
sS'setup'
p4181
I4164
sS'roof'
p4182
I4165
sS'movies'
p4183
I4166
sS'solitaire'
p4184
I4167
sS'foliage'
p4185
I4168
sS'root'
p4186
I4169
sS'vodka'
p4187
I4170
sS'headphones'
p4188
I4819
sS'give'
p4189
I4172
sS'programming'
p4190
I691
sS'involve'
p4191
I586
sS'foods'
p4192
I4175
sS'discography'
p4193
I4176
sS'cursors'
p4194
I4177
sS'rig'
p4195
I7684
sS'savers'
p4196
I4179
sS'advancing'
p4197
I4180
sS'aging'
p4198
I4181
sS'stills'
p4199
I632
sS'kabul'
p4200
I4185
sS'amazing'
p4201
I4186
sS'answer'
p4202
I4187
sS'blanket'
p4203
I4188
sS'wallpapers'
p4204
I4189
sS'bonsai'
p4205
I4190
sS'briefcase'
p4206
I665
sS'becks'
p4207
I4192
sS'manuals'
p4208
I4193
sS'president'
p4209
I4194
sS'lesbian'
p4210
I4195
sS'shirt'
p4211
I7686
sS'purchase'
p4212
I4197
sS'guerilla'
p4213
I4198
sS'third'
p4214
I4199
sS'fungi'
p4215
I4200
sS'owls'
p4216
I4201
sS'dining'
p4217
I6957
sS'maintain'
p4218
I4202
sS'goodbye'
p4219
I4203
sS'athletes'
p4220
I4205
sS'apse'
p4221
I4206
sS'operations'
p4222
I4207
sS'fetus'
p4223
I767
sS'deck'
p4224
I4209
sS'fifo'
p4225
I1801
sS'keyboard'
p4226
I4211
sS'windshield'
p4227
I4212
sS'before'
p4228
I4213
sS'chihuahua'
p4229
I4214
sS'personal'
p4230
I4215
sS'crew'
p4231
I4216
sS'better'
p4232
I4217
sS'damascus'
p4233
I4218
sS'weeks'
p4234
I4219
sS'workout'
p4235
I863
sS'caterpillar'
p4236
I4221
sS'therapy'
p4237
I4222
sS'glazed'
p4238
I4223
sS'meat'
p4239
I4224
sS'arrested'
p4240
I4225
sS'roast'
p4241
I4226
sS'bong'
p4242
I944
sS'meal'
p4243
I948
sS'bone'
p4244
I4229
sS'bond'
p4245
I951
sS'gargoyle'
p4246
I4231
sS'adobe'
p4247
I4232
sS'enthusiasts'
p4248
I964
sS'principles'
p4249
I4234
sS'indianapolis'
p4250
I3422
sS'trading'
p4251
I4236
sS'navy'
p4252
I4237
sS'aids'
p4253
I4238
sS'dawn'
p4254
I4239
sS'collector'
p4255
I4240
sS'sluts'
p4256
I4241
sS'restricted'
p4257
I4242
sS'tales'
p4258
I4243
sS'content'
p4259
I4244
sS'sparkle'
p4260
I4245
sS'reader'
p4261
I4246
sS'surprise'
p4262
I4247
sS'grease'
p4263
I4248
sS'turning'
p4264
I4249
sS'resume'
p4265
I4250
sS'revenge'
p4266
I4251
sS'ascending'
p4267
I4252
sS'struggle'
p4268
I4253
sS'tabasco'
p4269
I4254
sS'aisle'
p4270
I4255
sS'shaggy'
p4271
I4256
sS'starts'
p4272
I4257
sS'needlework'
p4273
I1140
sS'signature'
p4274
I4259
sS'loud'
p4275
I4260
sS'user'
p4276
I4261
sS'features'
p4277
I4262
sS'jamaica'
p4278
I4263
sS'grade'
p4279
I4264
sS'hoop'
p4280
I4265
sS'hoot'
p4281
I4266
sS'hook'
p4282
I1195
sS'featured'
p4283
I4268
sS'comforter'
p4284
I4269
sS'hoof'
p4285
I4270
sS'hood'
p4286
I1215
sS'hydrant'
p4287
I4272
sS'spinach'
p4288
I4273
sS'girls'
p4289
I4274
sS'cabling'
p4290
I4275
sS'hollywood'
p4291
I4276
sS'solemnly'
p4292
I4277
sS'gym'
p4293
I4278
sS'swoosh'
p4294
I4279
sS'stocking'
p4295
I4280
sS'begins'
p4296
I4281
sS'distance'
p4297
I4282
sS'keyword'
p4298
I4283
sS'drugstore'
p4299
I4284
sS'enabled'
p4300
I4285
sS'preparation'
p4301
I4286
sS'matter'
p4302
I4287
sS'street'
p4303
I6217
sS'knights'
p4304
I4289
sS'enables'
p4305
I4290
sS'mini'
p4306
I4291
sS'mink'
p4307
I4292
sS'palace'
p4308
I4293
sS'rattle'
p4309
I4294
sS'pistons'
p4310
I4295
sS'modern'
p4311
I4296
sS'mind'
p4312
I4297
sS'mine'
p4313
I4298
sS'seed'
p4314
I4299
sS'seen'
p4315
I4300
sS'seek'
p4316
I1398
sS'tells'
p4317
I4302
sS'horde'
p4318
I4303
sS'solids'
p4319
I7711
sS'impotent'
p4320
I4305
sS'bengal'
p4321
I4306
sS'chest'
p4322
I4307
sS'chess'
p4323
I4308
sS'hoods'
p4324
I4309
sS'panties'
p4325
I4310
sS'memo'
p4326
I4311
sS'quarterback'
p4327
I4312
sS'llamas'
p4328
I4313
sS'memorabilia'
p4329
I4314
sS'regular'
p4330
I4315
sS'bulldogs'
p4331
I4316
sS'maria'
p4332
I4317
sS'don'
p4333
I4318
sS'doc'
p4334
I4319
sS'alarm'
p4335
I4320
sS'doa'
p4336
I4321
sS'm'
p4337
I1518
sS'dog'
p4338
I4323
sS'competitors'
p4339
I4324
sS'points'
p4340
I4325
sS'parenthesis'
p4341
I4326
sS'pointy'
p4342
I1535
sS'mailing'
p4343
I1542
sS'dot'
p4344
I4329
sS'aquatic'
p4345
I4330
sS'lyrics'
p4346
I4331
sS'hunger'
p4347
I4332
sS'visitor'
p4348
I4333
sS'ending'
p4349
I4334
sS'attempts'
p4350
I4335
sS'poison'
p4351
I6223
sS'stepping'
p4352
I4337
sS'nevada'
p4353
I4338
sS'judges'
p4354
I4339
sS'weekends'
p4355
I4340
sS'sugar'
p4356
I4341
sS'celery'
p4357
I4342
sS'folks'
p4358
I4343
sS'folder'
p4359
I4344
sS'tiles'
p4360
I4345
sS'stow'
p4361
I4346
sS'stop'
p4362
I4347
sS'coast'
p4363
I4348
sS'stol'
p4364
I4349
sS'meditate'
p4365
I4350
sS'watermelon'
p4366
I4351
sS'turkic'
p4367
I7719
sS'saturn'
p4368
I4353
sS'earl'
p4369
I4354
sS'bat'
p4370
I4355
sS'bar'
p4371
I4356
sS'fields'
p4372
I4357
sS'microscopy'
p4373
I4358
sS'disco'
p4374
I4359
sS'bag'
p4375
I4360
sS'microscope'
p4376
I1739
sS'discs'
p4377
I4362
sS'troop'
p4378
I4363
sS'sinker'
p4379
I4364
sS'grilled'
p4380
I4365
sS'fertility'
p4381
I4366
sS'bah'
p4382
I4367
sS'ears'
p4383
I4368
sS'reference'
p4384
I4369
sS'testing'
p4385
I4370
sS'reefer'
p4386
I4371
sS'allure'
p4387
I4372
sS'subject'
p4388
I4373
sS'brazil'
p4389
I4374
sS'said'
p4390
I4375
sS'scrap'
p4391
I4376
sS'sail'
p4392
I4377
sS'prince'
p4393
I7722
sS'olympics'
p4394
I4380
sS'pets'
p4395
I4381
sS'baboon'
p4396
I1847
sS'warrior'
p4397
I4383
sS'crayons'
p4398
I1857
sS'vitamin'
p4399
I4385
sS'lotion'
p4400
I4386
sS'oms'
p4401
I4387
sS'modeling'
p4402
I4388
sS'conch'
p4403
I4389
sS'eyeball'
p4404
I4390
sS'against'
p4405
I4391
sS'scuba'
p4406
I4392
sS'floret'
p4407
I6231
sS'bison'
p4408
I7022
sS'guaranteed'
p4409
I3442
sS'coconut'
p4410
I4850
sS'loader'
p4411
I4396
sS'initiative'
p4412
I4397
sS'springs'
p4413
I4398
sS'ether'
p4414
I4399
sS'putt'
p4415
I4400
sS'puts'
p4416
I4401
sS'three'
p4417
I4402
sS'ting'
p4418
I4403
sS'commission'
p4419
I4404
sS'trigger'
p4420
I4405
sS'interest'
p4421
I4406
sS'basic'
p4422
I4407
sS'basin'
p4423
I4408
sS'piccolo'
p4424
I4852
sS'idol'
p4425
I4410
sS'website'
p4426
I4411
sS'chub'
p4427
I4412
sS'deeper'
p4428
I4413
sS'mushroom'
p4429
I4414
sS'greyhound'
p4430
I731
sS'sunshine'
p4431
I4416
sS'briefs'
p4432
I4853
sS'jewels'
p4433
I4418
sS'aviation'
p4434
I4419
sS'censored'
p4435
I4420
sS'scotsman'
p4436
I4421
sS'tank'
p4437
I4422
sS'tang'
p4438
I4423
sS'mustangs'
p4439
I4424
sS'tastes'
p4440
I735
sS'ugly'
p4441
I4426
sS'lizard'
p4442
I2115
sS'balance'
p4443
I4428
sS'anchor'
p4444
I4429
sS'spawn'
p4445
I4430
sS'seven'
p4446
I4431
sS'cane'
p4447
I4432
sS'iq'
p4448
I4433
sS'is'
p4449
I4434
sS'sushi'
p4450
I4435
sS'it'
p4451
I4436
sS'iv'
p4452
I4437
sS'cant'
p4453
I4438
sS'il'
p4454
I2164
sS'in'
p4455
I4440
sS'seattle'
p4456
I4441
sS'ie'
p4457
I4442
sS'id'
p4458
I4443
sS'if'
p4459
I4444
sS'grown'
p4460
I4445
sS'growl'
p4461
I4446
sS'pathfinder'
p4462
I4447
sS'bottles'
p4463
I4448
sS'stein'
p4464
I4449
sS'cools'
p4465
I4450
sS'belle'
p4466
I4451
sS'make'
p4467
I4452
sS'polaroid'
p4468
I4453
sS'belly'
p4469
I4454
sS'vegetable'
p4470
I4455
sS'grows'
p4471
I4456
sS'bells'
p4472
I4457
sS'scarfs'
p4473
I4458
sS'sacramento'
p4474
I4459
sS'kit'
p4475
I4460
sS'delight'
p4476
I4461
sS'renaissance'
p4477
I4462
sS'waterfall'
p4478
I4463
sS'garlic'
p4479
I4464
sS'warden'
p4480
I4465
sS'unicorn'
p4481
I4466
sS'opportunity'
p4482
I4467
sS'kid'
p4483
I4468
sS'butter'
p4484
I4469
sS'superstore'
p4485
I4470
sS'programs'
p4486
I2289
sS'changer'
p4487
I6242
sS'bedspread'
p4488
I4473
sS'hydration'
p4489
I4474
sS'tombstone'
p4490
I4475
sS'claims'
p4491
I4476
sS'smoked'
p4492
I4477
sS'investments'
p4493
I4478
sS'left'
p4494
I4479
sS'just'
p4495
I4480
sS'sentence'
p4496
I4481
sS'sporting'
p4497
I4482
sS'hillbilly'
p4498
I4483
sS'assigned'
p4499
I4484
sS'fighters'
p4500
I4485
sS'identify'
p4501
I4486
sS'human'
p4502
I4487
sS'facts'
p4503
I4488
sS'yep'
p4504
I4489
sS'yes'
p4505
I4490
sS'yet'
p4506
I4491
sS'belfast'
p4507
I4492
sS'candidate'
p4508
I4493
sS'endangered'
p4509
I4494
sS'legion'
p4510
I4495
sS'character'
p4511
I4496
sS'potential'
p4512
I4862
sS'save'
p4513
I4498
sS'reuse'
p4514
I4499
sS'sailors'
p4515
I4500
sS'perfunctory'
p4516
I4501
sS'background'
p4517
I4502
sS'dreams'
p4518
I4503
sS'shoulder'
p4519
I4504
sS'dignity'
p4520
I4505
sS'nude'
p4521
I4506
sS'manual'
p4522
I4507
sS'arrivals'
p4523
I4508
sS'banshee'
p4524
I4509
sS'notorious'
p4525
I4510
sS'angelfish'
p4526
I4511
sS'signal'
p4527
I4512
sS'www'
p4528
I4513
sS'dean'
p4529
I4514
sS'vaulter'
p4530
I4515
sS'deaf'
p4531
I4516
sS'dead'
p4532
I2536
sS'lavender'
p4533
I4518
sS'intern'
p4534
I4519
sS'jupiter'
p4535
I4520
sS'statistic'
p4536
I4521
sS'dear'
p4537
I4522
sS'theatrical'
p4538
I4523
sS'trace'
p4539
I4869
sS'kwangju'
p4540
I4525
sS'verona'
p4541
I4870
sS'microwave'
p4542
I4527
sS'shakespeare'
p4543
I4528
sS'bullfight'
p4544
I4529
sS'nepenthe'
p4545
I4530
sS'bola'
p4546
I4531
sS'burg'
p4547
I4532
sS'bold'
p4548
I4533
sS'burn'
p4549
I4534
sS'jester'
p4550
I4535
sS'sleigh'
p4551
I3458
sS'firemen'
p4552
I4537
sS'bolt'
p4553
I4538
sS'tartan'
p4554
I4539
sS'super'
p4555
I2662
sS'yelling'
p4556
I4541
sS'meow'
p4557
I4542
sS'ribs'
p4558
I4543
sS'valentines'
p4559
I4544
sS'magazine'
p4560
I4545
sS'afternoon'
p4561
I4546
sS'islands'
p4562
I2710
sS'seabird'
p4563
I4548
sS'coins'
p4564
I4549
sS'whats'
p4565
I4550
sS'lied'
p4566
I4551
sS'chimp'
p4567
I4552
sS'intellectual'
p4568
I4553
sS'daub'
p4569
I4554
sS'locator'
p4570
I4555
sS'shippers'
p4571
I4556
sS'carving'
p4572
I4557
sS'cardiff'
p4573
I4558
sS'cones'
p4574
I4559
sS'applets'
p4575
I4560
sS'flying'
p4576
I1476
sS'editor'
p4577
I4562
sS'bolivia'
p4578
I4563
sS'fork'
p4579
I4564
sS'offering'
p4580
I2847
sS'batman'
p4581
I4566
sS'fireworks'
p4582
I4567
sS'landing'
p4583
I4568
sS'ford'
p4584
I4569
sS'garments'
p4585
I4570
sS'diaper'
p4586
I4571
sS'berm'
p4587
I4572
sS'analyst'
p4588
I4573
sS'fort'
p4589
I4574
sS'continuance'
p4590
I4575
sS'builds'
p4591
I4576
sS'whiskey'
p4592
I4578
sS'whisker'
p4593
I4579
sS'daddy'
p4594
I4580
sS'temper'
p4595
I2916
sS'delete'
p4596
I4582
sS'shin'
p4597
I4583
sS'sticks'
p4598
I4584
sS'classic'
p4599
I4585
sS'covert'
p4600
I4586
sS'covers'
p4601
I4587
sS'drive'
p4602
I757
sS'muffins'
p4603
I4589
sS'ship'
p4604
I4590
sS'shiv'
p4605
I4591
sS'vista'
p4606
I4592
sS'alerts'
p4607
I4593
sS'handed'
p4608
I4594
sS'venison'
p4609
I4595
sS'digital'
p4610
I4596
sS'warehouse'
p4611
I4597
sS'holly'
p4612
I4598
sS'ribbons'
p4613
I4599
sS'handicap'
p4614
I4600
sS'slink'
p4615
I4601
sS'felt'
p4616
I4602
sS'diet'
p4617
I4603
sS'journey'
p4618
I3028
sS'weekend'
p4619
I4605
sS'died'
p4620
I4606
sS'jones'
p4621
I3046
sS'potato'
p4622
I4608
sS'daily'
p4623
I4609
sS'jacket'
p4624
I4610
sS'gorilla'
p4625
I4611
sS'stripping'
p4626
I4612
sS'teeth'
p4627
I4613
sS'shop'
p4628
I4614
sS'managed'
p4629
I4615
sS'skip'
p4630
I4616
sS'skis'
p4631
I4617
sS'invent'
p4632
I4618
sS'mild'
p4633
I4619
sS'skin'
p4634
I4620
sS'mill'
p4635
I4621
sS'bomber'
p4636
I3131
sS'milk'
p4637
I4623
sS'depend'
p4638
I4624
sS'father'
p4639
I4625
sS'editors'
p4640
I4626
sS'countdown'
p4641
I4627
sS'answered'
p4642
I4628
sS'finally'
p4643
I4629
sS'marks'
p4644
I4630
sS'sovereignty'
p4645
I4631
sS'shoot'
p4646
I4632
sS'string'
p4647
I4633
sS'ma'
p4648
I6269
sS'din'
p4649
I4635
sS'staples'
p4650
I3222
sS'did'
p4651
I4637
sS'die'
p4652
I4638
sS'dig'
p4653
I4639
sS'democrat'
p4654
I4640
sS'specials'
p4655
I4641
sS'dip'
p4656
I4642
sS'round'
p4657
I4643
sS'dis'
p4658
I4644
sS'shave'
p4659
I4645
sS'olympic'
p4660
I4646
sS'villa'
p4661
I4647
sS'gauguin'
p4662
I4648
sS'eating'
p4663
I3477
sS'afghanistan'
p4664
I4650
sS'indochina'
p4665
I4651
sS'template'
p4666
I4652
sS'gazebo'
p4667
I4653
sS'hummer'
p4668
I4654
sS'dwarf'
p4669
I4655
sS'bandwagon'
p4670
I4656
sS'tibet'
p4671
I4657
sS'guardian'
p4672
I4658
sS'makeup'
p4673
I4659
sS'stallion'
p4674
I4660
sS'french'
p4675
I4661
sS'rug'
p4676
I3482
sS'rue'
p4677
I3483
sS'earthquake'
p4678
I4664
sS'wait'
p4679
I4665
sS'alto'
p4680
I4666
sS'boy'
p4681
I4667
sS'canadian'
p4682
I4668
sS'institute'
p4683
I4669
sS'shift'
p4684
I4670
sS'bow'
p4685
I4671
sS'spheres'
p4686
I4672
sS'boo'
p4687
I4673
sS'priceless'
p4688
I4674
sS'bob'
p4689
I4675
sS'massage'
p4690
I4676
sS'bog'
p4691
I4677
sS'soliciting'
p4692
I4897
sS'kayak'
p4693
I4678
sS'patriots'
p4694
I3459
sS'transplant'
p4695
I4680
sS'franco'
p4696
I4681
sS'sake'
p4697
I4682
sS'visit'
p4698
I3497
sS'perm'
p4699
I4684
sS'france'
p4700
I4685
sS'vineyard'
p4701
I3502
sS'creamy'
p4702
I4687
sS'peru'
p4703
I4688
sS'pert'
p4704
I4689
sS'sharpen'
p4705
I4690
sS'checkout'
p4706
I4691
sS'freestyle'
p4707
I4692
sS'downtown'
p4708
I4693
sS'downing'
p4709
I4694
sS'realty'
p4710
I4695
sS'olive'
p4711
I4696
sS'blinds'
p4712
I4697
sS'fly'
p4713
I4698
sS'pageant'
p4714
I4699
sS'tokyo'
p4715
I4700
sS'soul'
p4716
I4701
sS'impel'
p4717
I3595
sS'soup'
p4718
I3600
sS'awareness'
p4719
I4704
sS'growing'
p4720
I4705
sS'making'
p4721
I4706
sS'arrive'
p4722
I4707
sS'septum'
p4723
I4708
sS'biter'
p4724
I4709
sS'lords'
p4725
I4710
sS'crazy'
p4726
I4711
sS'ranking'
p4727
I4899
sS'agent'
p4728
I4713
sS'sample'
p4729
I4714
sS'drawer'
p4730
I4715
sS'council'
p4731
I4716
sS'craze'
p4732
I4718
sS'rays'
p4733
I4719
sS'tilt'
p4734
I4720
sS'ping'
p4735
I4721
sS'sundae'
p4736
I3675
sS'chemical'
p4737
I4723
sS'till'
p4738
I4724
sS'sunday'
p4739
I4725
sS'pure'
p4740
I3688
sS'skates'
p4741
I4727
sS'tile'
p4742
I4728
sS'nyc'
p4743
I4729
sS'pathway'
p4744
I3700
sS'map'
p4745
I4731
sS'staying'
p4746
I4732
sS'mar'
p4747
I4733
sS'mat'
p4748
I4734
sS'strokes'
p4749
I3719
sS'fed'
p4750
I7905
sS'accessory'
p4751
I4736
sS'membership'
p4752
I3730
sS'designed'
p4753
I3736
sS'mag'
p4754
I4739
sS'hedonism'
p4755
I4740
sS'tablecloth'
p4756
I4741
sS'guys'
p4757
I4742
sS'grow'
p4758
I3749
sS'man'
p4759
I4744
sS'wheelie'
p4760
I4745
sS'neck'
p4761
I4746
sS'johnson'
p4762
I4747
sS'facile'
p4763
I4748
sS'tale'
p4764
I4749
sS'cascade'
p4765
I4750
sS'switch'
p4766
I4751
sS'jail'
p4767
I4752
sS'deposit'
p4768
I4753
sS'verify'
p4769
I4754
sS'biplane'
p4770
I82
sS'tall'
p4771
I4756
sS'gesture'
p4772
I4757
sS'cute'
p4773
I4758
sS'shield'
p4774
I3809
sS'feb'
p4775
I7906
sS'ged'
p4776
I4760
sS'entrails'
p4777
I4761
sS'lyric'
p4778
I4762
sS'shake'
p4779
I3836
sS'solder'
p4780
I4764
sS'pointer'
p4781
I4765
sS'group'
p4782
I3857
sS'monitor'
p4783
I4767
sS'thane'
p4784
I4768
sS'satyr'
p4785
I4769
sS'drummer'
p4786
I4770
sS'listing'
p4787
I4771
sS'policy'
p4788
I4772
sS'mail'
p4789
I3893
sS'main'
p4790
I4774
sS'finance'
p4791
I4775
sS'views'
p4792
I4776
sS'sooner'
p4793
I4777
sS'tucker'
p4794
I4778
sS'interview'
p4795
I4779
sS'kkk'
p4796
I4780
sS'leopards'
p4797
I4781
sS'bullshit'
p4798
I4782
sS'rattler'
p4799
I4783
sS'directories'
p4800
I4784
sS'settings'
p4801
I4785
sS'arrows'
p4802
I4786
sS'careless'
p4803
I4787
sS'gamble'
p4804
I4788
sS'rock'
p4805
I4789
sS'hardhat'
p4806
I4790
sS'latin'
p4807
I7622
sS'zurich'
p4808
I4791
sS'girl'
p4809
I4792
sS'taoism'
p4810
I4793
sS'description'
p4811
I6300
sS'canada'
p4812
I4795
sS'living'
p4813
I4796
sS'jackson'
p4814
I4797
sS'stitch'
p4815
I4798
sS'hemmer'
p4816
I4799
sS'nominal'
p4817
I4800
sS'tidbits'
p4818
I4801
sS'haydn'
p4819
I4802
sS'goth'
p4820
I4804
sS'after'
p4821
I4805
sS'monster'
p4822
I4806
sS'sideways'
p4823
I4807
sS'romano'
p4824
I4808
sS'pumping'
p4825
I4809
sS'california'
p4826
I4810
sS'vinyl'
p4827
I4811
sS'amigos'
p4828
I4812
sS'headband'
p4829
I4813
sS'advance'
p4830
I4814
sS'underwear'
p4831
I4815
sS'language'
p4832
I2934
sS'ministry'
p4833
I4817
sS'waiter'
p4834
I4818
sS'listings'
p4835
I4171
sS'thing'
p4836
I4820
sS'pepperoni'
p4837
I4821
sS'think'
p4838
I4822
sS'first'
p4839
I4823
sS'cheese'
p4840
I4824
sS'lone'
p4841
I7779
sS'nutritional'
p4842
I4826
sS'crib'
p4843
I4827
sS'shipyard'
p4844
I4828
sS'fast'
p4845
I7780
sS'carry'
p4846
I4830
sS'sounds'
p4847
I4831
sS'little'
p4848
I4832
sS'arch'
p4849
I4833
sS'autocrat'
p4850
I4834
sS'anyone'
p4851
I4835
sS'alfred'
p4852
I4836
sS'mermaid'
p4853
I4837
sS'eyes'
p4854
I4838
sS'moscow'
p4855
I4839
sS'broadcast'
p4856
I4840
sS'eyed'
p4857
I4841
sS'butt'
p4858
I4842
sS'cracks'
p4859
I4843
sS'sailing'
p4860
I4844
sS'midtown'
p4861
I4845
sS'victorian'
p4862
I4846
sS'knives'
p4863
I4847
sS'were'
p4864
I4848
sS'tractor'
p4865
I4849
sS'gathering'
p4866
I4395
sS'lick'
p4867
I4851
sS'topics'
p4868
I4409
sS'marijuana'
p4869
I4417
sS'voices'
p4870
I4854
sS'dash'
p4871
I4855
sS'comedian'
p4872
I4856
sS'nazi'
p4873
I4857
sS'speakers'
p4874
I4858
sS'answering'
p4875
I4859
sS'consortium'
p4876
I4860
sS'acumen'
p4877
I4861
sS'squad'
p4878
I4497
sS'interior'
p4879
I4863
sS'performance'
p4880
I4864
sS'personalized'
p4881
I4865
sS'channel'
p4882
I4866
sS'jungle'
p4883
I6312
sS'pain'
p4884
I4868
sS'pail'
p4885
I4524
sS'normal'
p4886
I4526
sS'track'
p4887
I4871
sS'paid'
p4888
I4872
sS'assault'
p4889
I4873
sS'sheets'
p4890
I4874
sS'pair'
p4891
I4875
sS'queens'
p4892
I4876
sS'especially'
p4893
I4877
sS'fills'
p4894
I4878
sS'napkin'
p4895
I4879
sS'stockings'
p4896
I4880
sS'reed'
p4897
I4881
sS'precise'
p4898
I4882
sS'rating'
p4899
I4883
sS'shot'
p4900
I4884
sS'reef'
p4901
I3516
sS'show'
p4902
I4886
sS'contemporary'
p4903
I4887
sS'shoe'
p4904
I4888
sS'corner'
p4905
I4889
sS'label'
p4906
I4890
sS'lieder'
p4907
I4891
sS'fend'
p4908
I4892
sS'dice'
p4909
I4893
sS'reel'
p4910
I3519
sS'treasure'
p4911
I4895
sS'cheeseburger'
p4912
I4896
sS'behind'
p4913
I3278
sS'roadkill'
p4914
I4898
sS'hippo'
p4915
I4712
sS'get'
p4916
I4900
sS'contracts'
p4917
I4901
sS'stomp'
p4918
I4902
sS'designated'
p4919
I4903
sS'employers'
p4920
I4904
sS'hotshot'
p4921
I4905
sS'hippy'
p4922
I4906
sS'gem'
p4923
I4907
sS'secondary'
p4924
I4908
sS'keyboards'
p4925
I4909
sS'median'
p4926
I4910
sS'morning'
p4927
I4911
sS'miles'
p4928
I4912
sS'oven'
p4929
I6322
sS'innovative'
p4930
I4914
sS'seat'
p4931
I4915
sS'relative'
p4932
I4916
sS'tribesman'
p4933
I4917
sS'eliminating'
p4934
I4918
sS'seal'
p4935
I4919
sS'stigma'
p4936
I4920
sS'calendar'
p4937
I4921
sS'wonder'
p4938
I4922
sS'puma'
p4939
I4923
sS'camping'
p4940
I4924
sS'forecast'
p4941
I4925
sS'boundaries'
p4942
I4926
sS'pump'
p4943
I4927
sS'diamonds'
p4944
I4928
sS'reading'
p4945
I4929
sS'checks'
p4946
I4930
sS'affordable'
p4947
I4931
sS'august'
p4948
I4932
sS'parent'
p4949
I4933
sS'parental'
p4950
I4934
sS'tut'
p4951
I4935
sS'tacit'
p4952
I4936
sS'singers'
p4953
I4937
sS'pharmacists'
p4954
I4938
sS'tue'
p4955
I4939
sS'coupons'
p4956
I4940
sS'tug'
p4957
I4941
sS'dates'
p4958
I4942
sS'fried'
p4959
I7792
sS'rugby'
p4960
I4944
sS'trades'
p4961
I4945
sS'tour'
p4962
I4946
sS'elijah'
p4963
I4947
sS'among'
p4964
I4948
sS'stretcher'
p4965
I4949
sS'cancer'
p4966
I4950
sS'maintained'
p4967
I4951
sS'mulatto'
p4968
I4952
sS'pacifier'
p4969
I4953
sS'cancel'
p4970
I4954
sS'tub'
p4971
I4955
sS'nose'
p4972
I5630
sS'sensible'
p4973
I3337
sS'arts'
p4974
I4957
sS'caricature'
p4975
I4958
sS'mark'
p4976
I5103
sS'mart'
p4977
I4960
sS'workshop'
p4978
I4961
sS'mars'
p4979
I4962
sS'borders'
p4980
I4963
sS'mary'
p4981
I4964
sS'educated'
p4982
I4965
sS'shopping'
p4983
I4966
sS'graveyard'
p4984
I4967
sS'regency'
p4985
I4968
sS'savory'
p4986
I4969
sS'wake'
p4987
I4970
sS'declaration'
p4988
I4971
sS'overdose'
p4989
I4972
sS'odyssey'
p4990
I4973
sS'those'
p4991
I4974
sS'sound'
p4992
I4975
sS'kappa'
p4993
I4976
sS'turtles'
p4994
I4977
sS'profiles'
p4995
I4978
sS'associates'
p4996
I7799
sS'coca'
p4997
I4980
sS'coco'
p4998
I4981
sS'cock'
p4999
I4982
sS'ulysses'
p5000
I4983
sS'endowed'
p5001
I4984
sS'strait'
p5002
I4985
sS'coffee'
p5003
I4986
sS'sleeping'
p5004
I4987
sS'middle'
p5005
I4988
sS'sahara'
p5006
I4989
sS'everyday'
p5007
I4990
sS'bags'
p5008
I4991
sS'different'
p5009
I4992
sS'pas'
p5010
I4993
sS'pat'
p5011
I4994
sS'doctor'
p5012
I4995
sS'pay'
p5013
I4996
sS'woodland'
p5014
I4997
sS'same'
p5015
I4998
sS'wizards'
p5016
I4999
sS'speech'
p5017
I5000
sS'greyhounds'
p5018
I5001
sS'stepped'
p5019
I5002
sS'pal'
p5020
I5003
sS'pan'
p5021
I5004
sS'oil'
p5022
I5005
sS'commode'
p5023
I5006
sS'seagulls'
p5024
I5007
sS'companion'
p5025
I5008
sS'running'
p5026
I5009
sS'stairwell'
p5027
I5010
sS'climbing'
p5028
I5011
sS'totally'
p5029
I5012
sS'weave'
p5030
I5013
sS'drain'
p5031
I5014
sS'macro'
p5032
I5015
sS'wellington'
p5033
I5016
sS'bottle'
p5034
I5017
sS'gates'
p5035
I5018
sS'outdoor'
p5036
I5019
sS'money'
p5037
I5020
sS'sights'
p5038
I5021
sS'unofficial'
p5039
I5022
sS'dehydration'
p5040
I5023
sS'woodworking'
p5041
I5024
sS'aspect'
p5042
I5025
sS'flavor'
p5043
I5026
sS'asthma'
p5044
I5027
sS'nick'
p5045
I7807
sS'tourism'
p5046
I6335
sS'politicians'
p5047
I5029
sS'beagle'
p5048
I5030
sS'crocodiles'
p5049
I5031
sS'pile'
p5050
I5032
sS'pill'
p5051
I5033
sS'careers'
p5052
I5034
sS'grip'
p5053
I5035
sS'mow'
p5054
I5036
sS'mot'
p5055
I5037
sS'department'
p5056
I5038
sS'chainsaw'
p5057
I5039
sS'grid'
p5058
I5040
sS'mon'
p5059
I5041
sS'mom'
p5060
I5042
sS'mob'
p5061
I5043
sS'railroad'
p5062
I5044
sS'grim'
p5063
I5045
sS'grin'
p5064
I5046
sS'rocky'
p5065
I5047
sS'vertically'
p5066
I5048
sS'vending'
p5067
I5049
sS'adams'
p5068
I5050
sS'lightning'
p5069
I5051
sS'facing'
p5070
I5052
sS'chamber'
p5071
I5053
sS'audience'
p5072
I5054
sS'laughing'
p5073
I5055
sS'squalls'
p5074
I5056
sS'drainage'
p5075
I5057
sS'passionate'
p5076
I5058
sS'sneaker'
p5077
I5059
sS'witchcraft'
p5078
I5060
sS'dole'
p5079
I5061
sS'erase'
p5080
I5062
sS'images'
p5081
I5063
sS'ascent'
p5082
I5064
sS'users'
p5083
I7811
sS'gross'
p5084
I5067
sS'genetics'
p5085
I5068
sS'colonial'
p5086
I5069
sS'fondue'
p5087
I5070
sS'pioneer'
p5088
I5071
sS'critical'
p5089
I5072
sS'seeding'
p5090
I5073
sS'aussie'
p5091
I5074
sS'knife'
p5092
I5075
sS'victory'
p5093
I6343
sS'crouton'
p5094
I5077
sS'mare'
p5095
I4956
sS'dali'
p5096
I7814
sS'each'
p5097
I6344
sS'broker'
p5098
I5081
sS'squall'
p5099
I5082
sS'broken'
p5100
I5083
sS'drums'
p5101
I5084
sS'stations'
p5102
I5085
sS'roar'
p5103
I5086
sS'island'
p5104
I5087
sS'violence'
p5105
I5088
sS'drag'
p5106
I3541
sS'airline'
p5107
I5090
sS'pockets'
p5108
I5091
sS'toothpaste'
p5109
I5092
sS'monomania'
p5110
I5093
sS'road'
p5111
I5094
sS'wilds'
p5112
I5096
sS'memorials'
p5113
I5097
sS'coupon'
p5114
I5098
sS'airlines'
p5115
I830
sS'harness'
p5116
I5100
sS'references'
p5117
I5101
sS'strip'
p5118
I5102
sS'feeders'
p5119
I4959
sS'jigsaw'
p5120
I5104
sS'lions'
p5121
I5106
sS'enough'
p5122
I5107
sS'gory'
p5123
I5108
sS'buggy'
p5124
I5109
sS'tripod'
p5125
I5110
sS'bookstore'
p5126
I5111
sS'gore'
p5127
I5112
sS'walkway'
p5128
I5113
sS'cacti'
p5129
I5114
sS'romantic'
p5130
I5115
sS'vhs'
p5131
I5116
sS'strawberry'
p5132
I5117
sS'emissions'
p5133
I5118
sS'suitcase'
p5134
I5119
sS'videos'
p5135
I5120
sS'rapids'
p5136
I5121
sS'deer'
p5137
I5122
sS'deep'
p5138
I5123
sS'general'
p5139
I5124
sS'imagination'
p5140
I5125
sS'planets'
p5141
I5126
sS'lifetime'
p5142
I5127
sS'hound'
p5143
I5128
sS'cables'
p5144
I5129
sS'film'
p5145
I5130
sS'fill'
p5146
I5131
sS'again'
p5147
I5132
sS'genres'
p5148
I5133
sS'strikers'
p5149
I5134
sS'pensive'
p5150
I5135
sS'allentown'
p5151
I5136
sS'drivers'
p5152
I5137
sS'narcotics'
p5153
I5138
sS'field'
p5154
I5139
sS'prism'
p5155
I5140
sS'salamanders'
p5156
I5141
sS'weights'
p5157
I7825
sS'opacity'
p5158
I5143
sS'hey'
p5159
I5873
sS'obsessed'
p5160
I5144
sS'students'
p5161
I5145
sS'brandy'
p5162
I5146
sS'important'
p5163
I5147
sS'tackle'
p5164
I5148
sS'sneeze'
p5165
I5149
sS'remote'
p5166
I5150
sS'photos'
p5167
I5151
sS'u'
p5168
I5152
sS'god'
p5169
I6355
sS'husky'
p5170
I5154
sS'starting'
p5171
I5155
sS'psychic'
p5172
I6356
sS'caste'
p5173
I5157
sS'forget'
p5174
I5158
sS'founder'
p5175
I5159
sS'geode'
p5176
I5160
sS'dollar'
p5177
I5161
sS'sultan'
p5178
I8192
sS'cooperative'
p5179
I5163
sS'talks'
p5180
I5164
sS'children'
p5181
I5165
sS'redecorate'
p5182
I5166
sS'crimson'
p5183
I5167
sS'premium'
p5184
I5168
sS'sitting'
p5185
I5169
sS'heavenly'
p5186
I6360
sS'scout'
p5187
I5171
sS'fall'
p5188
I5172
sS'difference'
p5189
I5173
sS'syracuse'
p5190
I5174
sS'norfolk'
p5191
I5175
sS'celebrity'
p5192
I5176
sS'outtakes'
p5193
I5177
sS'ge'
p5194
I5178
sS'saudi'
p5195
I5179
sS'biological'
p5196
I5180
sS'neighborhood'
p5197
I5181
sS'portable'
p5198
I5182
sS'grasshopper'
p5199
I5183
sS'burger'
p5200
I5184
sS'zero'
p5201
I5185
sS'titles'
p5202
I5186
sS'quebec'
p5203
I5187
sS'lawyer'
p5204
I5188
sS'further'
p5205
I5189
sS'ribbon'
p5206
I5190
sS'dial'
p5207
I5191
sS'defence'
p5208
I5192
sS'stood'
p5209
I5193
sS'brackets'
p5210
I5194
sS'storks'
p5211
I5195
sS'stool'
p5212
I5196
sS'abs'
p5213
I5198
sS'tribute'
p5214
I5199
sS'everlasting'
p5215
I5200
sS'public'
p5216
I5201
sS'movement'
p5217
I5202
sS'outgoing'
p5218
I5203
sS'malaria'
p5219
I5204
sS'compilation'
p5220
I5205
sS'component'
p5221
I5206
sS'vale'
p5222
I5207
sS'surfer'
p5223
I5208
sS'ranges'
p5224
I5209
sS'ranger'
p5225
I5210
sS'capacitor'
p5226
I5211
sS'table'
p5227
I8167
sS'publisher'
p5228
I5212
sS'search'
p5229
I5213
sS'bible'
p5230
I5214
sS'tortoise'
p5231
I5215
sS'psalms'
p5232
I5216
sS'stretching'
p5233
I5217
sS'airport'
p5234
I5218
sS'published'
p5235
I5219
sS'mosque'
p5236
I3566
sS'clapping'
p5237
I5221
sS'africa'
p5238
I5222
sS'armed'
p5239
I5223
sS'eye'
p5240
I5224
sS'destination'
p5241
I5225
sS'two'
p5242
I5226
sS'splash'
p5243
I5227
sS'lassie'
p5244
I5228
sS'raft'
p5245
I5229
sS'megaphone'
p5246
I5230
sS'wiper'
p5247
I5231
sS'bulgarian'
p5248
I5232
sS'diamond'
p5249
I5233
sS'canon'
p5250
I5234
sS'chimpanzee'
p5251
I5235
sS'admissions'
p5252
I5236
sS'landed'
p5253
I5237
sS'lemons'
p5254
I5238
sS'suite'
p5255
I3570
sS'karaoke'
p5256
I5240
sS'town'
p5257
I5241
sS'none'
p5258
I5242
sS'hour'
p5259
I5243
sS'strain'
p5260
I5244
sS'sucks'
p5261
I5245
sS'guards'
p5262
I5246
sS'del'
p5263
I5247
sS'dem'
p5264
I5248
sS'taut'
p5265
I5249
sS'specialized'
p5266
I5250
sS'marble'
p5267
I5251
sS'def'
p5268
I5252
sS'shark'
p5269
I5253
sS'hamburger'
p5270
I5254
sS'stacking'
p5271
I5255
sS'galleries'
p5272
I5256
sS'share'
p5273
I5257
sS'sphere'
p5274
I5258
sS'numbers'
p5275
I5259
sS'purchased'
p5276
I5260
sS'sharp'
p5277
I5261
sS'robinson'
p5278
I5262
sS'biography'
p5279
I5263
sS'needs'
p5280
I5264
sS'comfort'
p5281
I5265
sS'fame'
p5282
I5266
sS'maps'
p5283
I5267
sS'sacred'
p5284
I5268
sS'stir'
p5285
I5269
sS'ensemble'
p5286
I5270
sS'galactic'
p5287
I5271
sS'redwood'
p5288
I5272
sS'petite'
p5289
I5273
sS'uprising'
p5290
I5274
sS'advice'
p5291
I5275
sS'par'
p5292
I5276
sS'blood'
p5293
I5277
sS'faculty'
p5294
I5278
sS'acreage'
p5295
I3576
sS'bloom'
p5296
I5280
sS'hedgehogs'
p5297
I5281
sS'brady'
p5298
I5283
sS'coat'
p5299
I5284
sS'paw'
p5300
I5285
sS'spoon'
p5301
I7849
sS'dragon'
p5302
I5287
sS'coal'
p5303
I5288
sS'pleasure'
p5304
I5289
sS'playing'
p5305
I5290
sS'infant'
p5306
I5291
sS'earing'
p5307
I5292
sS'stains'
p5308
I5293
sS'oblique'
p5309
I5294
sS'azerbaijan'
p5310
I5295
sS'radar'
p5311
I5296
sS'rounder'
p5312
I5297
sS'industrial'
p5313
I6380
sS'through'
p5314
I5299
sS'lava'
p5315
I5300
sS'filters'
p5316
I5301
sS'suffer'
p5317
I5302
sS'arrogant'
p5318
I5303
sS'champs'
p5319
I2267
sS'late'
p5320
I5305
sS'pend'
p5321
I5306
sS'dolly'
p5322
I5307
sS'pad'
p5323
I5308
sS'dolls'
p5324
I5309
sS'good'
p5325
I5310
sS'holy'
p5326
I5311
sS'aerobics'
p5327
I5312
sS'homicidal'
p5328
I5313
sS'detour'
p5329
I5314
sS'walls'
p5330
I5315
sS'compound'
p5331
I5316
sS'association'
p5332
I5317
sS'mystery'
p5333
I5318
sS'huddle'
p5334
I5319
sS'pregnant'
p5335
I5320
sS'micro'
p5336
I5321
sS'goofy'
p5337
I5322
sS'gender'
p5338
I5323
sS'clamp'
p5339
I5325
sS'harm'
p5340
I5326
sS'everyone'
p5341
I5327
sS'hark'
p5342
I5328
sS'chopper'
p5343
I5329
sS'house'
p5344
I5330
sS'hare'
p5345
I5331
sS'hard'
p5346
I5332
sS'beret'
p5347
I5333
sS'connect'
p5348
I5334
sS'fist'
p5349
I5335
sS'portland'
p5350
I5337
sS'hart'
p5351
I5338
sS'backpacks'
p5352
I5339
sS'orient'
p5353
I5340
sS'harp'
p5354
I5341
sS'initiatives'
p5355
I5342
sS'flower'
p5356
I5343
sS'singapore'
p5357
I869
sS'pigeon'
p5358
I5345
sS'acting'
p5359
I5346
sS'cyclone'
p5360
I5347
sS'evaluation'
p5361
I5348
sS'brewery'
p5362
I5349
sS'lawrence'
p5363
I5350
sS'pleasant'
p5364
I5351
sS'giveaway'
p5365
I5352
sS'members'
p5366
I5353
sS'hermes'
p5367
I5354
sS'faucet'
p5368
I5355
sS'benefits'
p5369
I5356
sS'computers'
p5370
I5357
sS'diversion'
p5371
I5358
sS'corkscrew'
p5372
I5359
sS'barber'
p5373
I5360
sS'copper'
p5374
I5361
sS'bullies'
p5375
I5362
sS'barbarian'
p5376
I5363
sS'campground'
p5377
I5364
sS'cups'
p5378
I5365
sS'razor'
p5379
I5366
sS'twenty'
p5380
I5367
sS'paint'
p5381
I5368
sS'leash'
p5382
I5369
sS'statement'
p5383
I5370
sS'mama'
p5384
I5371
sS'rates'
p5385
I5372
sS'muscles'
p5386
I5373
sS'para'
p5387
I5374
sS'drapes'
p5388
I5375
sS'needle'
p5389
I5376
sS'park'
p5390
I5377
sS'dentist'
p5391
I5378
sS'part'
p5392
I5379
sS'doctors'
p5393
I5380
sS'trolls'
p5394
I5381
sS'believe'
p5395
I5382
sS'farming'
p5396
I5383
sS'horizons'
p5397
I5384
sS'damages'
p5398
I5385
sS'youth'
p5399
I5386
sS'bohemian'
p5400
I5387
sS'supposed'
p5401
I5388
sS'interactive'
p5402
I5389
sS'urban'
p5403
I6401
sS'ages'
p5404
I5391
sS'windbreaker'
p5405
I5392
sS'orders'
p5406
I5393
sS'mountain'
p5407
I5394
sS'cadillac'
p5408
I5395
sS'cardigan'
p5409
I5396
sS'built'
p5410
I5397
sS'dancing'
p5411
I5398
sS'couch'
p5412
I5399
sS'majority'
p5413
I5400
sS'caesar'
p5414
I5401
sS'build'
p5415
I5402
sS'deepening'
p5416
I5403
sS'cameroon'
p5417
I5404
sS'province'
p5418
I5405
sS'serene'
p5419
I5406
sS'serve'
p5420
I6405
sS'eggs'
p5421
I5408
sS'flute'
p5422
I5409
sS'salmon'
p5423
I5410
sS'chart'
p5424
I5411
sS'most'
p5425
I5412
sS'charm'
p5426
I5413
sS'moss'
p5427
I5414
sS'services'
p5428
I5415
sS'eskimo'
p5429
I5416
sS'refrigerator'
p5430
I5417
sS'kc'
p5431
I5418
sS'ks'
p5432
I5419
sS'reflections'
p5433
I5420
sS'azimuth'
p5434
I5421
sS'weigh'
p5435
I5422
sS'ky'
p5436
I5423
sS'clinician'
p5437
I5424
sS'sector'
p5438
I5425
sS'thomas'
p5439
I5426
sS'cereal'
p5440
I5427
sS'sparrow'
p5441
I5428
sS'espresso'
p5442
I3603
sS'fins'
p5443
I5430
sS'businesses'
p5444
I5431
sS'chock'
p5445
I5432
sS'fine'
p5446
I5433
sS'find'
p5447
I5434
sS'giant'
p5448
I5435
sS'ruin'
p5449
I5436
sS'fiend'
p5450
I5437
sS'gills'
p5451
I5438
sS'boulder'
p5452
I5439
sS'permission'
p5453
I5440
sS'batten'
p5454
I5441
sS'luke'
p5455
I5442
sS'ferret'
p5456
I5443
sS'courage'
p5457
I5444
sS'batter'
p5458
I5445
sS'breast'
p5459
I5446
sS'theft'
p5460
I5447
sS'silk'
p5461
I5448
sS'merchandise'
p5462
I5449
sS'silo'
p5463
I5450
sS'spikes'
p5464
I5451
sS'bet'
p5465
I6083
sS'caballeros'
p5466
I5452
sS'common'
p5467
I5453
sS'gospel'
p5468
I5454
sS'dragoon'
p5469
I8293
sS'devils'
p5470
I5456
sS'printout'
p5471
I5457
sS'vine'
p5472
I5458
sS'lion'
p5473
I5459
sS'manly'
p5474
I5460
sS'pediatrics'
p5475
I3607
sS'please'
p5476
I5463
sS'aviary'
p5477
I5464
sS'fans'
p5478
I5465
sS'envelopes'
p5479
I5466
sS'champagne'
p5480
I5467
sS'iron'
p5481
I5468
sS'presumption'
p5482
I5469
sS'pagoda'
p5483
I5470
sS'aircraft'
p5484
I5471
sS'foothill'
p5485
I5472
sS'drawings'
p5486
I5473
sS'cubes'
p5487
I5474
sS'reverse'
p5488
I5475
sS'restaurant'
p5489
I4155
sS'annual'
p5490
I5477
sS'foreign'
p5491
I5478
sS'suede'
p5492
I5479
sS'mean'
p5493
I5480
sS'baltimore'
p5494
I5481
sS'bongo'
p5495
I5482
sS'point'
p5496
I5483
sS'simple'
p5497
I5484
sS'recycling'
p5498
I5485
sS'smother'
p5499
I5486
sS'pamphlet'
p5500
I5487
sS'dances'
p5501
I5488
sS'dancer'
p5502
I5489
sS'simply'
p5503
I5490
sS'busters'
p5504
I5491
sS'platinum'
p5505
I5492
sS'helms'
p5506
I5493
sS'weaving'
p5507
I5494
sS'raise'
p5508
I5495
sS'dicky'
p5509
I5496
sS'minesweeper'
p5510
I5497
sS'create'
p5511
I5498
sS'creativity'
p5512
I5499
sS'rivals'
p5513
I5500
sS'secret'
p5514
I5501
sS'dropping'
p5515
I5502
sS'ireland'
p5516
I5503
sS'laos'
p5517
I5504
sS'peppers'
p5518
I5505
sS'meeting'
p5519
I5506
sS'ukraine'
p5520
I7880
sS'vans'
p5521
I5508
sS'ram'
p5522
I6420
sS'gay'
p5523
I5510
sS'gas'
p5524
I5512
sS'gap'
p5525
I5513
sS'repertoire'
p5526
I5514
sS'understand'
p5527
I5515
sS'whitney'
p5528
I5516
sS'prices'
p5529
I5517
sS'rupture'
p5530
I5518
sS'pierce'
p5531
I5519
sS'hitchcock'
p5532
I5520
sS'politician'
p5533
I12
sS'kissinger'
p5534
I5522
sS'talking'
p5535
I6421
sS'bill'
p5536
I5524
sS'elections'
p5537
I5525
sS'horseshoe'
p5538
I29
sS'aquatics'
p5539
I5527
sS'fun'
p5540
I5528
sS'portugal'
p5541
I5529
sS'century'
p5542
I5530
sS'cents'
p5543
I5531
sS'calender'
p5544
I5532
sS'facade'
p5545
I5533
sS'monroe'
p5546
I5534
sS'eland'
p5547
I5535
sS'italy'
p5548
I5536
sS'pigtail'
p5549
I5537
sS'butcher'
p5550
I5538
sS'spade'
p5551
I6424
sS'corridor'
p5552
I5540
sS'ruth'
p5553
I5541
sS'neutron'
p5554
I5542
sS'development'
p5555
I145
sS'strips'
p5556
I5544
sS'keys'
p5557
I5545
sS'leopard'
p5558
I5546
sS'yesterday'
p5559
I5547
sS'desks'
p5560
I5548
sS'moment'
p5561
I5549
sS'stripe'
p5562
I177
sS'injector'
p5563
I5551
sS'woofer'
p5564
I5552
sS'sandals'
p5565
I5553
sS'dark'
p5566
I5554
sS'beanie'
p5567
I5555
sS'swish'
p5568
I199
sS'spent'
p5569
I5557
sS'flags'
p5570
I5558
sS'howe'
p5571
I5559
sS'swiss'
p5572
I867
sS'entry'
p5573
I5282
sS'chemistry'
p5574
I5562
sS'spend'
p5575
I5563
sS'prevention'
p5576
I5564
sS'auctioneers'
p5577
I5566
sS'shape'
p5578
I5567
sS'openly'
p5579
I5568
sS'atomic'
p5580
I5569
sS'alternative'
p5581
I5570
sS'timber'
p5582
I5571
sS'cut'
p5583
I5572
sS'cup'
p5584
I5573
sS'alternate'
p5585
I325
sS'source'
p5586
I5575
sS'cue'
p5587
I5576
sS'cub'
p5588
I5577
sS'snap'
p5589
I349
sS'bridal'
p5590
I5579
sS'mod'
p5591
I5580
sS'easter'
p5592
I5581
sS'bin'
p5593
I5582
sS'cornish'
p5594
I5583
sS'big'
p5595
I5584
sS'bid'
p5596
I5585
sS'educator'
p5597
I6430
sS'redeem'
p5598
I5587
sS'biz'
p5599
I5588
sS'bit'
p5600
I5589
sS'semi'
p5601
I5591
sS'cogs'
p5602
I5592
sS'disks'
p5603
I5593
sS'glove'
p5604
I5594
sS'moccasins'
p5605
I5595
sS'bamboo'
p5606
I5596
sS'walrus'
p5607
I5597
sS'sequin'
p5608
I5598
sS'gardening'
p5609
I5599
sS'often'
p5610
I5600
sS'collectors'
p5611
I5601
sS'buttons'
p5612
I5602
sS'absolutely'
p5613
I5603
sS'peddlers'
p5614
I5604
sS'duck'
p5615
I7901
sS'back'
p5616
I5606
sS'martial'
p5617
I5607
sS'strongest'
p5618
I5608
sS'martian'
p5619
I5609
sS'pricing'
p5620
I5610
sS'mirror'
p5621
I5611
sS'candle'
p5622
I5612
sS'server'
p5623
I5613
sS'scale'
p5624
I5614
sS'jewelry'
p5625
I497
sS'contacts'
p5626
I5616
sS'pet'
p5627
I5617
sS'decision'
p5628
I5618
sS'pew'
p5629
I5619
sS'pep'
p5630
I5620
sS'integration'
p5631
I5621
sS'per'
p5632
I5622
sS'pen'
p5633
I5623
sS'sneakers'
p5634
I517
sS'bogus'
p5635
I5625
sS'lard'
p5636
I5626
sS'pee'
p5637
I5627
sS'peg'
p5638
I529
sS'pea'
p5639
I5629
sS'scaly'
p5640
I537
sS'ladder'
p5641
I5631
sS'patient'
p5642
I5632
sS'ufo'
p5643
I5633
sS'continuing'
p5644
I5634
sS'costumes'
p5645
I5635
sS'from'
p5646
I5636
sS'goods'
p5647
I5638
sS'braille'
p5648
I5639
sS'oatmeal'
p5649
I593
sS'drama'
p5650
I5641
sS'beans'
p5651
I5642
sS'daisies'
p5652
I5643
sS'liberator'
p5653
I5644
sS'jimmy'
p5654
I5645
sS'grammy'
p5655
I5646
sS'aliens'
p5656
I5647
sS'retailer'
p5657
I5648
sS'rackets'
p5658
I7911
sS'frames'
p5659
I5650
sS'proportional'
p5660
I5651
sS'downhill'
p5661
I5652
sS'calming'
p5662
I5653
sS'jockey'
p5663
I680
sS'doll'
p5664
I5655
sS'borer'
p5665
I5656
sS'handbook'
p5666
I5657
sS'forward'
p5667
I5658
sS'invite'
p5668
I5659
sS'adjusting'
p5669
I5660
sS'boys'
p5670
I5661
sS'underlined'
p5671
I5662
sS'lydia'
p5672
I5663
sS'hopes'
p5673
I5664
sS'groovy'
p5674
I778
sS'planet'
p5675
I795
sS'swami'
p5676
I5667
sS'planes'
p5677
I5668
sS'reviewed'
p5678
I5669
sS'autonomous'
p5679
I5670
sS'geese'
p5680
I5671
sS'flow'
p5681
I6442
sS'leon'
p5682
I8252
sS'engineering'
p5683
I843
sS'curb'
p5684
I5674
sS'necks'
p5685
I5675
sS'curl'
p5686
I5676
sS'cafe'
p5687
I5677
sS'yearbook'
p5688
I858
sS'dakar'
p5689
I5679
sS'quaff'
p5690
I5680
sS'cellar'
p5691
I5681
sS'enterprise'
p5692
I6446
sS'firetruck'
p5693
I936
sS'prepared'
p5694
I5684
sS'lens'
p5695
I5685
sS'restoration'
p5696
I5686
sS'utterly'
p5697
I5687
sS'desert'
p5698
I5689
sS'leprechauns'
p5699
I5690
sS'scouting'
p5700
I5691
sS'mantel'
p5701
I5692
sS'vehicles'
p5702
I5693
sS'stroller'
p5703
I412
sS'lotto'
p5704
I5695
sS'jason'
p5705
I5696
sS'nap'
p5706
I7615
sS'amplifier'
p5707
I5697
sS'query'
p5708
I5698
sS'golfer'
p5709
I5699
sS'graves'
p5710
I5700
sS'peanut'
p5711
I5701
sS'freon'
p5712
I5702
sS'literary'
p5713
I1109
sS'blaze'
p5714
I5705
sS'brooms'
p5715
I1121
sS'maryland'
p5716
I5707
sS'fatal'
p5717
I1127
sS'ingredient'
p5718
I5709
sS'stonehenge'
p5719
I5710
sS'labels'
p5720
I5711
sS'automotive'
p5721
I1153
sS'putting'
p5722
I5713
sS'releases'
p5723
I6926
sS'aborting'
p5724
I5714
sS'molar'
p5725
I5716
sS'recreation'
p5726
I5717
sS'knight'
p5727
I5718
sS'shock'
p5728
I5719
sS'musicals'
p5729
I6457
sS'educators'
p5730
I5721
sS'crow'
p5731
I5722
sS'quakes'
p5732
I5723
sS'mural'
p5733
I1254
sS'rivers'
p5734
I5725
sS'insertion'
p5735
I5726
sS'copenhagen'
p5736
I5727
sS'depression'
p5737
I5728
sS'chicago'
p5738
I5729
sS'giving'
p5739
I5730
sS'pipes'
p5740
I5731
sS'raincoat'
p5741
I5078
sS'paddle'
p5742
I5733
sS'access'
p5743
I5734
sS'body'
p5744
I5735
sS'toast'
p5745
I5736
sS'spacing'
p5746
I5737
sS'objects'
p5747
I5738
sS'healing'
p5748
I5739
sS'others'
p5749
I5740
sS'sing'
p5750
I5741
sS'safer'
p5751
I5742
sS'jockeys'
p5752
I5743
sS'capsules'
p5753
I5744
sS'talent'
p5754
I5745
sS'alaska'
p5755
I5746
sS'climb'
p5756
I5747
sS'clime'
p5757
I1412
sS'presidents'
p5758
I5749
sS'limp'
p5759
I5750
sS'baskets'
p5760
I5751
sS'talon'
p5761
I5752
sS'names'
p5762
I1445
sS'composer'
p5763
I5754
sS'oval'
p5764
I1448
sS'festivals'
p5765
I5756
sS'lima'
p5766
I5757
sS'gateway'
p5767
I5758
sS'lime'
p5768
I5759
sS'asteroid'
p5769
I5761
sS'butler'
p5770
I5762
sS'snatching'
p5771
I2651
sS'dupes'
p5772
I5764
sS'thatch'
p5773
I5765
sS'trail'
p5774
I5766
sS'train'
p5775
I5767
sS'normalized'
p5776
I5768
sS'harvest'
p5777
I5769
sS'subscription'
p5778
I5770
sS'account'
p5779
I5771
sS'origins'
p5780
I5772
sS'f'
p5781
I5773
sS'tunnel'
p5782
I5774
sS'vaudeville'
p5783
I5775
sS'tag'
p5784
I7933
sS'smear'
p5785
I5777
sS'closing'
p5786
I5778
sS'reserved'
p5787
I5779
sS'reserves'
p5788
I5780
sS'abcs'
p5789
I5781
sS'bones'
p5790
I5782
sS'tan'
p5791
I7938
sS'hangar'
p5792
I2544
sS'lamb'
p5793
I5785
sS'lama'
p5794
I5786
sS'democracy'
p5795
I5787
sS'dinners'
p5796
I5788
sS'regions'
p5797
I5789
sS'lamp'
p5798
I5790
sS'winners'
p5799
I5791
sS'forest'
p5800
I5792
sS'furnace'
p5801
I5793
sS'stock'
p5802
I5794
sS'profile'
p5803
I5795
sS'buildings'
p5804
I5796
sS'y'
p5805
I5797
sS'sir'
p5806
I7942
sS'highs'
p5807
I5799
sS'philosophy'
p5808
I5800
sS'collection'
p5809
I5801
sS'united'
p5810
I7943
sS'prostate'
p5811
I5803
sS'physic'
p5812
I5804
sS'drape'
p5813
I5805
sS'sit'
p5814
I7945
sS'lines'
p5815
I5807
sS'amazon'
p5816
I6476
sS'chief'
p5817
I5809
sS'minivan'
p5818
I5810
sS'furious'
p5819
I5811
sS'solos'
p5820
I5812
sS'mustache'
p5821
I5813
sS'meter'
p5822
I5814
sS'symbols'
p5823
I5815
sS'horns'
p5824
I5816
sS'dagger'
p5825
I3869
sS'horny'
p5826
I5818
sS'iguana'
p5827
I5819
sS'industries'
p5828
I5820
sS'bridges'
p5829
I5821
sS'lc'
p5830
I5822
sS'la'
p5831
I5823
sS'lo'
p5832
I5824
sS'labor'
p5833
I1890
sS'marsh'
p5834
I5826
sS'lp'
p5835
I5827
sS'criminal'
p5836
I5828
sS'dad'
p5837
I5829
sS'lunatic'
p5838
I1926
sS'dam'
p5839
I5831
sS'cutting'
p5840
I5832
sS'day'
p5841
I5833
sS'february'
p5842
I5834
sS'thrill'
p5843
I5835
sS'countries'
p5844
I6481
sS'sin'
p5845
I7952
sS'berliner'
p5846
I5837
sS'lingerie'
p5847
I5838
sS'flair'
p5848
I5839
sS'dreaming'
p5849
I5105
sS'lentil'
p5850
I2058
sS'salesman'
p5851
I1628
sS'matt'
p5852
I5843
sS'stub'
p5853
I5844
sS'mate'
p5854
I5845
sS'oriental'
p5855
I2089
sS'barley'
p5856
I5847
sS'grebe'
p5857
I5848
sS'lecture'
p5858
I2098
sS'smog'
p5859
I2099
sS'ref'
p5860
I5851
sS'math'
p5861
I5852
sS'shots'
p5862
I6487
sS'frank'
p5863
I5854
sS'fourteen'
p5864
I5855
sS'bleed'
p5865
I5856
sS'retriever'
p5866
I5857
sS'yard'
p5867
I5858
sS'fart'
p5868
I5859
sS'mortar'
p5869
I5860
sS'recipes'
p5870
I5861
sS'skateboard'
p5871
I5862
sS'yarn'
p5872
I5863
sS'matchmaker'
p5873
I5865
sS'yak'
p5874
I7243
sS'retail'
p5875
I5866
sS'invisible'
p5876
I5867
sS'waitress'
p5877
I2194
sS'smokehouse'
p5878
I5869
sS'finest'
p5879
I5870
sS'reloaded'
p5880
I5871
sS'sack'
p5881
I5872
sS'strategic'
p5882
I2225
sS'hurdle'
p5883
I2235
sS'raggedy'
p5884
I5875
sS'ancient'
p5885
I5876
sS'monkey'
p5886
I5877
sS'bologna'
p5887
I5878
sS'pots'
p5888
I5879
sS'nut'
p5889
I6490
sS'upcoming'
p5890
I5763
sS'georgetown'
p5891
I5882
sS'gear'
p5892
I5883
sS'bulldog'
p5893
I5884
sS'nobody'
p5894
I5885
sS'negro'
p5895
I5886
sS'lightening'
p5896
I5887
sS'shampoo'
p5897
I5888
sS'sweden'
p5898
I5889
sS'loves'
p5899
I5890
sS'lover'
p5900
I5891
sS'embody'
p5901
I5892
sS'abstracts'
p5902
I5893
sS'fermentation'
p5903
I5894
sS'curves'
p5904
I5895
sS'tide'
p5905
I5896
sS'have'
p5906
I5897
sS'complete'
p5907
I5898
sS'acceleration'
p5908
I5899
sS'congrats'
p5909
I2443
sS'skillful'
p5910
I2445
sS'billiards'
p5911
I5902
sS'gravity'
p5912
I2455
sS'parks'
p5913
I5904
sS'montgomery'
p5914
I5905
sS'hazel'
p5915
I5906
sS'eight'
p5916
I5907
sS'handbag'
p5917
I2520
sS'sally'
p5918
I5909
sS'payment'
p5919
I5910
sS'request'
p5920
I2553
sS'disease'
p5921
I5912
sS'graphs'
p5922
I5913
sS'skinny'
p5923
I5914
sS'parish'
p5924
I5915
sS'selection'
p5925
I5916
sS'kite'
p5926
I5917
sS'charles'
p5927
I2604
sS'remus'
p5928
I5919
sS'kits'
p5929
I5920
sS'portfolio'
p5930
I5921
sS'appliqued'
p5931
I5922
sS'staff'
p5932
I5923
sS'communism'
p5933
I5924
sS'knowledge'
p5934
I5925
sS'scorpion'
p5935
I5926
sS'catalogue'
p5936
I6499
sS'controls'
p5937
I5928
sS'loafers'
p5938
I5929
sS'satan'
p5939
I5930
sS'communist'
p5940
I5931
sS'photographs'
p5941
I5932
sS'beat'
p5942
I2702
sS'beau'
p5943
I5934
sS'photography'
p5944
I5935
sS'stripes'
p5945
I5936
sS'bear'
p5946
I5937
sS'beam'
p5947
I5938
sS'bean'
p5948
I5939
sS'beak'
p5949
I5940
sS'bead'
p5950
I5941
sS'striped'
p5951
I5942
sS'areas'
p5952
I5943
sS'organ'
p5953
I5944
sS'ashtray'
p5954
I5945
sS'cicero'
p5955
I5946
sS'kilts'
p5956
I2764
sS'teams'
p5957
I2769
sS'motherhood'
p5958
I5949
sS'costume'
p5959
I5950
sS'quake'
p5960
I7975
sS'national'
p5961
I2821
sS'intensity'
p5962
I5953
sS'install'
p5963
I6278
sS'enhanced'
p5964
I5954
sS'greece'
p5965
I5955
sS'racket'
p5966
I5956
sS'pedigree'
p5967
I5957
sS'reform'
p5968
I5958
sS'pattern'
p5969
I5959
sS'nebula'
p5970
I5960
sS'hammock'
p5971
I5961
sS'routing'
p5972
I5962
sS'wean'
p5973
I6503
sS'progress'
p5974
I5964
sS'cauliflower'
p5975
I5965
sS'persephone'
p5976
I5967
sS'sorrow'
p5977
I5968
sS'deliver'
p5978
I5969
sS'armenia'
p5979
I5970
sS'instant'
p5980
I5971
sS'buster'
p5981
I5972
sS'rime'
p5982
I6507
sS'taking'
p5983
I5974
sS'equal'
p5984
I5975
sS'pulp'
p5985
I5511
sS'swallow'
p5986
I5977
sS'highland'
p5987
I5978
sS'guerrilla'
p5988
I5979
sS'wear'
p5989
I6508
sS'comment'
p5990
I5981
sS'detailed'
p5991
I5982
sS'statues'
p5992
I5983
sS'denim'
p5993
I5984
sS'laugh'
p5994
I5985
sS'news'
p5995
I6509
sS'earning'
p5996
I5987
sS'johnny'
p5997
I5988
sS'swimmer'
p5998
I5989
sS'copies'
p5999
I5990
sS'gaze'
p6000
I5991
sS'teamwork'
p6001
I5992
sS'curtain'
p6002
I5993
sS'accents'
p6003
I5994
sS'antlers'
p6004
I5995
sS'finishes'
p6005
I5996
sS'cos'
p6006
I5997
sS'ridden'
p6007
I5998
sS'angler'
p6008
I3095
sS'bulb'
p6009
I6000
sS'napoleon'
p6010
I6001
sS'volunteer'
p6011
I6002
sS'homer'
p6012
I6003
sS'homes'
p6013
I6004
sS'plaid'
p6014
I6005
sS'splits'
p6015
I6006
sS'plain'
p6016
I6007
sS'value'
p6017
I6008
sS'file'
p6018
I6009
sS'av'
p6019
I5704
sS'helped'
p6020
I6011
sS'arabia'
p6021
I6012
sS'partner'
p6022
I6013
sS'inspector'
p6023
I1475
sS'productivity'
p6024
I6015
sS'oink'
p6025
I6016
sS'layered'
p6026
I6517
sS'casualty'
p6027
I6018
sS'shuttle'
p6028
I6019
sS'coin'
p6029
I6436
sS'injured'
p6030
I3228
sS'practice'
p6031
I7994
sS'cubic'
p6032
I273
sS'brad'
p6033
I6024
sS'binoculars'
p6034
I6025
sS'ion'
p6035
I6026
sS'sisters'
p6036
I6027
sS'sunburn'
p6037
I6028
sS'insure'
p6038
I6029
sS'center'
p6039
I6030
sS'sweets'
p6040
I6031
sS'weapon'
p6041
I3289
sS'thought'
p6042
I6033
sS'procurement'
p6043
I6034
sS'oops'
p6044
I6035
sS'position'
p6045
I6036
sS'muscle'
p6046
I6037
sS'soviet'
p6047
I6038
sS'latest'
p6048
I6039
sS'stores'
p6049
I3325
sS'fingerprint'
p6050
I7997
sS'clinic'
p6051
I6042
sS'stored'
p6052
I6043
sS'voltage'
p6053
I6044
sS'seats'
p6054
I6045
sS'dakota'
p6055
I6046
sS'tone'
p6056
I6047
sS'flashlight'
p6057
I6048
sS'hamburg'
p6058
I6050
sS'ads'
p6059
I6051
sS'onward'
p6060
I6052
sS'lake'
p6061
I6053
sS'rebate'
p6062
I3387
sS'add'
p6063
I6055
sS'sedan'
p6064
I6056
sS'ado'
p6065
I6057
sS'crossroad'
p6066
I6058
sS'match'
p6067
I3405
sS'raven'
p6068
I6060
sS'worlds'
p6069
I8002
sS'royalty'
p6070
I6062
sS'insert'
p6071
I6063
sS'flamingo'
p6072
I6064
sS'like'
p6073
I6065
sS'success'
p6074
I6066
sS'sofa'
p6075
I6067
sS'porous'
p6076
I6068
sS'ozone'
p6077
I6069
sS'tram'
p6078
I8007
sS'chick'
p6079
I6072
sS'works'
p6080
I6073
sS'soft'
p6081
I6074
sS'heel'
p6082
I6075
sS'crawler'
p6083
I3493
sS'alive'
p6084
I3515
sS'swimsuits'
p6085
I6078
sS'hair'
p6086
I6079
sS'convey'
p6087
I6080
sS'shrug'
p6088
I6081
sS'est'
p6089
I6082
sS'shrub'
p6090
I3546
sS'esp'
p6091
I6084
sS'dunes'
p6092
I6085
sS'corpse'
p6093
I6086
sS'hurricane'
p6094
I6087
sS'bleeder'
p6095
I6088
sS'shelter'
p6096
I6089
sS'speak'
p6097
I6090
sS'chains'
p6098
I6091
sS'trap'
p6099
I8012
sS'survivor'
p6100
I7882
sS'pepper'
p6101
I6093
sS'hose'
p6102
I3590
sS'lipid'
p6103
I6095
sS'nazarene'
p6104
I2571
sS'host'
p6105
I6097
sS'worthy'
p6106
I6098
sS'panel'
p6107
I6099
sS'beaker'
p6108
I6100
sS'gifts'
p6109
I6101
sS'about'
p6110
I6102
sS'socket'
p6111
I6103
sS'mastiff'
p6112
I6104
sS'legendary'
p6113
I6105
sS'lyricists'
p6114
I8209
sS'flake'
p6115
I6106
sS'louisville'
p6116
I6107
sS'toadstool'
p6117
I6108
sS'tomb'
p6118
I6109
sS'socks'
p6119
I6110
sS'guard'
p6120
I6111
sS'female'
p6121
I6112
sS'knuckles'
p6122
I6113
sS'stainless'
p6123
I3733
sS'vegetables'
p6124
I3735
sS'outline'
p6125
I6116
sS'firefighter'
p6126
I6117
sS'biggest'
p6127
I6119
sS'maze'
p6128
I6120
sS'laredo'
p6129
I6122
sS'ivory'
p6130
I6123
sS'buy'
p6131
I6124
sS'bur'
p6132
I6125
sS'bus'
p6133
I6126
sS'coke'
p6134
I3786
sS'sequel'
p6135
I6128
sS'but'
p6136
I6129
sS'insured'
p6137
I6130
sS'bun'
p6138
I3803
sS'bum'
p6139
I6132
sS'memphis'
p6140
I6133
sS'bug'
p6141
I6134
sS'bud'
p6142
I6135
sS'wise'
p6143
I6136
sS'glory'
p6144
I6137
sS'wish'
p6145
I6138
sS'j'
p6146
I6139
sS'flip'
p6147
I6140
sS'wisp'
p6148
I6141
sS'condiment'
p6149
I6142
sS'tricks'
p6150
I6143
sS'skating'
p6151
I6144
sS'pin'
p6152
I6145
sS'whisper'
p6153
I6146
sS'marmot'
p6154
I6147
sS'circus'
p6155
I6148
sS'pie'
p6156
I3890
sS'pig'
p6157
I6150
sS'periods'
p6158
I6151
sS'shooting'
p6159
I6152
sS'pit'
p6160
I6153
sS'campus'
p6161
I6154
sS'journalism'
p6162
I6155
sS'corporation'
p6163
I6156
sS'oak'
p6164
I6157
sS'detail'
p6165
I6158
sS'virtual'
p6166
I6159
sS'forestry'
p6167
I6160
sS'jeeps'
p6168
I6161
sS'special'
p6169
I2100
sS'dresses'
p6170
I6163
sS'handcrafted'
p6171
I3955
sS'variation'
p6172
I6165
sS'cheque'
p6173
I6166
sS'panoramas'
p6174
I6167
sS'seismic'
p6175
I6168
sS'astronomy'
p6176
I6169
sS'idaho'
p6177
I6170
sS'oral'
p6178
I6171
sS'baker'
p6179
I6172
sS'original'
p6180
I6173
sS'hiker'
p6181
I6174
sS'pupil'
p6182
I6175
sS'yell'
p6183
I6176
sS'cookbook'
p6184
I6177
sS'bagpipe'
p6185
I4056
sS'dissuading'
p6186
I6179
sS'hats'
p6187
I6180
sS'dynasty'
p6188
I6181
sS'facilities'
p6189
I6182
sS'sleep'
p6190
I6183
sS'bushmaster'
p6191
I6184
sS'hate'
p6192
I6185
sS'trolley'
p6193
I6186
sS'muzzle'
p6194
I6187
sS'therapeutics'
p6195
I4117
sS'paris'
p6196
I6189
sS'tweet'
p6197
I6190
sS'abundance'
p6198
I6267
sS'teapot'
p6199
I6547
sS'under'
p6200
I6192
sS'stationery'
p6201
I6193
sS'lure'
p6202
I6194
sS'allergy'
p6203
I6195
sS'risk'
p6204
I6196
sS'tampons'
p6205
I6197
sS'rise'
p6206
I6198
sS'every'
p6207
I6199
sS'jack'
p6208
I6200
sS'confetti'
p6209
I6201
sS'fireplace'
p6210
I6202
sS'monkeys'
p6211
I6203
sS'school'
p6212
I6204
sS'parrot'
p6213
I6205
sS'venus'
p6214
I6207
sS'joggers'
p6215
I6208
sS'enjoy'
p6216
I6209
sS'bicycle'
p6217
I6210
sS'leaders'
p6218
I6211
sS'feathery'
p6219
I6212
sS'guidelines'
p6220
I6213
sS'feathers'
p6221
I6214
sS'direct'
p6222
I6215
sS'nail'
p6223
I6216
sS'fabulous'
p6224
I4288
sS'shining'
p6225
I6218
sS'hide'
p6226
I6219
sS'christ'
p6227
I6220
sS'selected'
p6228
I6221
sS'revolver'
p6229
I6222
sS'liberty'
p6230
I4336
sS'blur'
p6231
I6224
sS'supplies'
p6232
I6225
sS'seeks'
p6233
I1987
sS'teachers'
p6234
I6552
sS'wink'
p6235
I6228
sS'diagonal'
p6236
I6229
sS'beck'
p6237
I6230
sS'studio'
p6238
I4393
sS'kicker'
p6239
I6232
sS'path'
p6240
I6233
sS'voice'
p6241
I6234
sS'forum'
p6242
I6235
sS'luggage'
p6243
I6236
sS'auction'
p6244
I6237
sS'leaves'
p6245
I6238
sS'changed'
p6246
I6239
sS'mantis'
p6247
I6240
sS'chateau'
p6248
I6241
sS'punishment'
p6249
I4472
sS'pendant'
p6250
I7363
sS'prints'
p6251
I6244
sS'straw'
p6252
I6245
sS'stink'
p6253
I6246
sS'strap'
p6254
I6247
sS'meats'
p6255
I6248
sS'pantyhose'
p6256
I6249
sS'would'
p6257
I6251
sS'idyll'
p6258
I6252
sS'hospital'
p6259
I6253
sS'spike'
p6260
I6254
sS'preview'
p6261
I6255
sS'assessment'
p6262
I6256
sS'breathe'
p6263
I6257
sS'saber'
p6264
I6258
sS'ti'
p6265
I6259
sS'muse'
p6266
I6260
sS'accessories'
p6267
I6555
sS'phone'
p6268
I6262
sS'connecticut'
p6269
I6263
sS'pouch'
p6270
I6264
sS'tampa'
p6271
I6265
sS'must'
p6272
I6266
sS'me'
p6273
I3115
sS'mg'
p6274
I6268
sS'join'
p6275
I4634
sS'mb'
p6276
I6270
sS'mm'
p6277
I6271
sS'tb'
p6278
I6272
sS'mo'
p6279
I6273
sS'mn'
p6280
I6274
sS'mi'
p6281
I6275
sS'mt'
p6282
I6276
sS'mp'
p6283
I6277
sS'ms'
p6284
I3256
sS'henry'
p6285
I6279
sS'appraisal'
p6286
I249
sS'fortress'
p6287
I6281
sS'decorative'
p6288
I6282
sS'estate'
p6289
I6283
sS'dolphin'
p6290
I6284
sS'mayhem'
p6291
I6285
sS'orion'
p6292
I6286
sS'woodpecker'
p6293
I6121
sS'attract'
p6294
I6288
sS'guarantee'
p6295
I6289
sS'ceremony'
p6296
I6290
sS'end'
p6297
I6291
sS'eng'
p6298
I6292
sS'slalom'
p6299
I6293
sS'rhinoceros'
p6300
I6294
sS'buns'
p6301
I6295
sS'writers'
p6302
I629
sS'gate'
p6303
I6297
sS'cyberspace'
p6304
I6298
sS'poker'
p6305
I6299
sS'elizabeth'
p6306
I4794
sS'mouths'
p6307
I6301
sS'horoscope'
p6308
I6302
sS'mess'
p6309
I6303
sS'mouthy'
p6310
I6304
sS'jumping'
p6311
I6305
sS'biting'
p6312
I8041
sS'airless'
p6313
I6307
sS'salsa'
p6314
I6308
sS'parallel'
p6315
I6309
sS'spout'
p6316
I6310
sS'patent'
p6317
I6311
sS'ultimate'
p6318
I4867
sS'enter'
p6319
I6313
sS'vapor'
p6320
I6314
sS'hedgehog'
p6321
I6315
sS'flippers'
p6322
I6316
sS'delaware'
p6323
I7830
sS'over'
p6324
I6317
sS'sickle'
p6325
I6318
sS'mallard'
p6326
I6319
sS'jacuzzi'
p6327
I6320
sS'london'
p6328
I6321
sS'crumbs'
p6329
I4913
sS'vita'
p6330
I6323
sS'digest'
p6331
I6324
sS'fads'
p6332
I6325
sS'pubes'
p6333
I6559
sS'mongolia'
p6334
I6327
sS'writing'
p6335
I6328
sS'imp'
p6336
I6329
sS'phallic'
p6337
I6330
sS'croquet'
p6338
I6331
sS'iowa'
p6339
I6332
sS'tourist'
p6340
I6333
sS'plaster'
p6341
I6334
sS'rental'
p6342
I5028
sS'shadows'
p6343
I6336
sS'stinking'
p6344
I6337
sS'pbs'
p6345
I6338
sS'potatoes'
p6346
I6339
sS'detroit'
p6347
I6340
sS'choir'
p6348
I6341
sS'affiliate'
p6349
I6342
sS'oahu'
p6350
I5076
sS'fitness'
p6351
I5080
sS'lasting'
p6352
I6345
sS'consolidate'
p6353
I6346
sS'hank'
p6354
I6347
sS'hanger'
p6355
I6348
sS'diana'
p6356
I6349
sS'moose'
p6357
I6565
sS'waffle'
p6358
I6351
sS'poncho'
p6359
I6352
sS'saturday'
p6360
I6353
sS'driving'
p6361
I6354
sS'kuwait'
p6362
I5153
sS'motel'
p6363
I5156
sS'goa'
p6364
I6357
sS'millennium'
p6365
I6358
sS'mayday'
p6366
I6359
sS'lain'
p6367
I5170
sS'got'
p6368
I6361
sS'washer'
p6369
I6362
sS'bald'
p6370
I1608
sS'arizona'
p6371
I6364
sS'rail'
p6372
I6365
sS'eternal'
p6373
I6366
sS'free'
p6374
I6367
sS'masterpiece'
p6375
I6368
sS'formation'
p6376
I6369
sS'rain'
p6377
I6370
sS'wanted'
p6378
I6371
sS'acrobat'
p6379
I6372
sS'publication'
p6380
I8050
sS'equine'
p6381
I6374
sS'days'
p6382
I6375
sS'filter'
p6383
I6376
sS'hopeless'
p6384
I6377
sS'soda'
p6385
I6378
sS'aspire'
p6386
I6379
sS'appeals'
p6387
I5298
sS'attractions'
p6388
I6381
sS'puck'
p6389
I6382
sS'primary'
p6390
I6383
sS'rank'
p6391
I6384
sS'fantasy'
p6392
I6385
sS'scissors'
p6393
I5336
sS'esperanto'
p6394
I6387
sS'mercury'
p6395
I6388
sS'inmate'
p6396
I8051
sS'toy'
p6397
I6390
sS'revival'
p6398
I6391
sS'top'
p6399
I6392
sS'attack'
p6400
I6393
sS'tot'
p6401
I6394
sS'fiction'
p6402
I6395
sS'kinder'
p6403
I6396
sS'too'
p6404
I6397
sS'tom'
p6405
I6398
sS'percentage'
p6406
I6399
sS'toe'
p6407
I6400
sS'curtains'
p6408
I5390
sS'ceiling'
p6409
I6402
sS'murder'
p6410
I6403
sS'tool'
p6411
I6404
sS'leaking'
p6412
I5407
sS'compressor'
p6413
I6406
sS'toot'
p6414
I6407
sS'western'
p6415
I6408
sS'tampon'
p6416
I6409
sS'postcards'
p6417
I6410
sS'nominate'
p6418
I6411
sS'aztec'
p6419
I6412
sS'tourists'
p6420
I850
sS'flame'
p6421
I6414
sS'bridge'
p6422
I6415
sS'donkey'
p6423
I6416
sS'fashion'
p6424
I6417
sS'bards'
p6425
I6418
sS'ran'
p6426
I6419
sS'ruckus'
p6427
I5509
sS'raw'
p6428
I5523
sS'rat'
p6429
I6422
sS'rap'
p6430
I6423
sS'seminar'
p6431
I5539
sS'ray'
p6432
I6425
sS'scriptures'
p6433
I6426
sS'hispanic'
p6434
I6427
sS'snow'
p6435
I6428
sS'contact'
p6436
I6429
sS'hatch'
p6437
I5586
sS'rides'
p6438
I6431
sS'rider'
p6439
I6432
sS'milkman'
p6440
I6433
sS'abc'
p6441
I6434
sS'coil'
p6442
I6435
sS'evangelism'
p6443
I1742
sS'weddings'
p6444
I6437
sS'glow'
p6445
I6438
sS'promotions'
p6446
I6439
sS'treats'
p6447
I6440
sS'partition'
p6448
I6441
sS'metal'
p6449
I5672
sS'treaty'
p6450
I6443
sS'freeway'
p6451
I6444
sS'yang'
p6452
I6445
sS'pineapple'
p6453
I5682
sS'yank'
p6454
I6447
sS'seasonal'
p6455
I6583
sS'bait'
p6456
I6449
sS'inspire'
p6457
I6450
sS'pope'
p6458
I6451
sS'chewer'
p6459
I6452
sS'queen'
p6460
I3584
sS'talkers'
p6461
I6454
sS'colors'
p6462
I6455
sS'radio'
p6463
I6456
sS'sharpie'
p6464
I5720
sS'queer'
p6465
I6458
sS'earth'
p6466
I6459
sS'dove'
p6467
I6460
sS'availability'
p6468
I6461
sS'spite'
p6469
I6462
sS'minnesota'
p6470
I6463
sS'commandment'
p6471
I6464
sS'gods'
p6472
I6465
sS'lodge'
p6473
I6466
sS'ocr'
p6474
I6467
sS'scripture'
p6475
I6468
sS'oct'
p6476
I6469
sS'erasure'
p6477
I6470
sS'waltz'
p6478
I6471
sS'sunglasses'
p6479
I6472
sS'watch'
p6480
I6473
sS'fluid'
p6481
I6474
sS'geek'
p6482
I6475
sS'guatemala'
p6483
I5808
sS'wedding'
p6484
I6477
sS'report'
p6485
I6478
sS'fabrics'
p6486
I6479
sS'beads'
p6487
I6480
sS'noon'
p6488
I5694
sS'rowing'
p6489
I6482
sS'idiotic'
p6490
I6483
sS'plush'
p6491
I6484
sS'twice'
p6492
I6485
sS'erupt'
p6493
I6486
sS'kauai'
p6494
I5853
sS'automatic'
p6495
I4115
sS'motherboard'
p6496
I6489
sS'liquor'
p6497
I5880
sS'nun'
p6498
I6491
sS'noodles'
p6499
I6492
sS'jerseys'
p6500
I6493
sS'gladiator'
p6501
I6494
sS'hourglass'
p6502
I6495
sS'interviewing'
p6503
I6496
sS'grandmother'
p6504
I6497
sS'mud'
p6505
I6498
sS'mug'
p6506
I5927
sS'finger'
p6507
I6500
sS'mum'
p6508
I6501
sS'discovery'
p6509
I6502
sS'confusion'
p6510
I5963
sS'transformer'
p6511
I6504
sS'boss'
p6512
I6505
sS'toothbrush'
p6513
I6506
sS'southeast'
p6514
I5973
sS'aquarium'
p6515
I5980
sS'byways'
p6516
I5986
sS'mule'
p6517
I6510
sS'newt'
p6518
I6511
sS'improve'
p6519
I6512
sS'protect'
p6520
I6513
sS'unicef'
p6521
I6514
sS'blimp'
p6522
I6515
sS'players'
p6523
I6516
sS'chandeliers'
p6524
I6017
sS'games'
p6525
I6518
sS'gamer'
p6526
I6020
sS'faces'
p6527
I6520
sS'jello'
p6528
I6521
sS'lenses'
p6529
I6522
sS'epidemic'
p6530
I6524
sS'trust'
p6531
I6525
sS'hitler'
p6532
I6526
sS'organza'
p6533
I6527
sS'conference'
p6534
I6528
sS'bathroom'
p6535
I6529
sS'jobless'
p6536
I6530
sS'beef'
p6537
I6531
sS'shout'
p6538
I6532
sS'been'
p6539
I6533
sS'beep'
p6540
I6534
sS'submarine'
p6541
I6535
sS'beer'
p6542
I6536
sS'bees'
p6543
I6118
sS'beet'
p6544
I6538
sS'containers'
p6545
I6539
sS'drugs'
p6546
I6540
sS'republicans'
p6547
I6541
sS'bereavement'
p6548
I6542
sS'enterprises'
p6549
I6543
sS'rowers'
p6550
I6544
sS'catch'
p6551
I6545
sS'hers'
p6552
I6546
sS'glider'
p6553
I6191
sS'kingfisher'
p6554
I6548
sS'cracker'
p6555
I6549
sS'kentucky'
p6556
I6550
sS'n'
p6557
I6551
sS'ape'
p6558
I7904
sS'dashboard'
p6559
I6227
sS'pyramid'
p6560
I6553
sS'revision'
p6561
I6554
sS'lollypop'
p6562
I6261
sS'astronaut'
p6563
I6556
sS'border'
p6564
I6557
sS'wound'
p6565
I6558
sS'forehead'
p6566
I6326
sS'healthier'
p6567
I6560
sS'esquire'
p6568
I6561
sS'scapula'
p6569
I6562
sS'several'
p6570
I6563
sS'emulator'
p6571
I6564
sS'satellite'
p6572
I6350
sS'peaks'
p6573
I6566
sS'screw'
p6574
I6567
sS'welsh'
p6575
I6568
sS'pick'
p6576
I6569
sS'springtime'
p6577
I6570
sS'portal'
p6578
I6571
sS'characters'
p6579
I6572
sS'postmark'
p6580
I6573
sS'cycle'
p6581
I6574
sS'tassel'
p6582
I6575
sS'ocean'
p6583
I6576
sS'savings'
p6584
I6577
sS'greatest'
p6585
I6578
sS'mother'
p6586
I6579
sS'hearts'
p6587
I6580
sS'jean'
p6588
I6581
sS'dads'
p6589
I6582
sS'snowman'
p6590
I6448
sS'leagues'
p6591
I6584
sS'unemployment'
p6592
I6585
sS'laptop'
p6593
I6586
sS'torah'
p6594
I6587
sS'rodent'
p6595
I6588
sS'thumbs'
p6596
I6589
sS'cape'
p6597
I6590
sS'strayed'
p6598
I6591
sS'elk'
p6599
I6592
sS'monitored'
p6600
I6593
sS'cherry'
p6601
I764
sS'elf'
p6602
I6595
sS'pharmacy'
p6603
I6596
sS'teenager'
p6604
I6597
sS'humanity'
p6605
I6598
sS'trashed'
p6606
I6599
sS'gave'
p6607
I6600
sS'casting'
p6608
I6601
sS'bands'
p6609
I6602
sS'vulture'
p6610
I6603
sS'judge'
p6611
I6604
sS'burns'
p6612
I6605
sS'burnt'
p6613
I6606
sS'advanced'
p6614
I6607
sS'gift'
p6615
I6608
sS'midge'
p6616
I6609
sS'hunt'
p6617
I6610
sS'orlando'
p6618
I6611
sS'vip'
p6619
I6612
sS'specific'
p6620
I6614
sS'mosquito'
p6621
I6615
sS'skoal'
p6622
I6616
sS'envision'
p6623
I6617
sS'proudly'
p6624
I6618
sS'zoom'
p6625
I6619
sS'sponge'
p6626
I6620
sS'malaysia'
p6627
I6621
sS'clubs'
p6628
I6622
sS'meters'
p6629
I6623
sS'election'
p6630
I6624
sS'escape'
p6631
I6625
sS'advertise'
p6632
I6626
sS'perfected'
p6633
I6627
sS'tutorial'
p6634
I6628
sS'proceeding'
p6635
I6629
sS'icc'
p6636
I6631
sS'centre'
p6637
I8090
sS'ice'
p6638
I6632
sS'rhino'
p6639
I6633
sS'everything'
p6640
I6634
sS'skylight'
p6641
I6635
sS'cnn'
p6642
I6636
sS'christmas'
p6643
I6637
sS'officer'
p6644
I6638
sS'cord'
p6645
I6639
sS'core'
p6646
I6640
sS'sewing'
p6647
I6641
sS'brawl'
p6648
I6642
sS'corn'
p6649
I6643
sS'cork'
p6650
I6644
sS'discount'
p6651
I6645
sS'lamps'
p6652
I6646
sS'hst'
p6653
I6647
sS'erotica'
p6654
I6648
sS'dalmatian'
p6655
I6649
sS'plug'
p6656
I6650
sS'census'
p6657
I6651
sS'cowboy'
p6658
I6652
sS'attacks'
p6659
I6653
sS'plum'
p6660
I6654
sS'choke'
p6661
I6655
sS'sunstroke'
p6662
I6656
sS'dinner'
p6663
I6657
sS'plus'
p6664
I6658
sS'curry'
p6665
I6659
sS'duke'
p6666
I6660
sS'primitive'
p6667
I6661
sS'civil'
p6668
I6662
sS'puzzle'
p6669
I6663
sS'bath'
p6670
I6664
sS'tribune'
p6671
I6665
sS'coastal'
p6672
I6666
sS'cafeteria'
p6673
I6667
sS'cubicle'
p6674
I6668
sS'rely'
p6675
I6670
sS'transoceanic'
p6676
I6671
sS'sunlight'
p6677
I6672
sS'why'
p6678
I8095
sS'virgin'
p6679
I6674
sS'anderson'
p6680
I6675
sS'dank'
p6681
I6676
sS'head'
p6682
I6677
sS'medium'
p6683
I6678
sS'amateur'
p6684
I6679
sS'deny'
p6685
I8098
sS'wireless'
p6686
I6681
sS'heat'
p6687
I6682
sS'hear'
p6688
I6683
sS'solar'
p6689
I6684
sS'tacky'
p6690
I6685
sS'swampland'
p6691
I6686
sS'flavour'
p6692
I6687
sS'versions'
p6693
I6688
sS'bargain'
p6694
I6689
sS'kitschy'
p6695
I6690
sS'scrabble'
p6696
I6691
sS'penal'
p6697
I6692
sS'trim'
p6698
I6693
sS'trio'
p6699
I6694
sS'estonia'
p6700
I6695
sS'everest'
p6701
I6697
sS'shiner'
p6702
I6698
sS'trip'
p6703
I6699
sS'regime'
p6704
I6700
sS'nh'
p6705
I6701
sS'ni'
p6706
I6702
sS'whee'
p6707
I1605
sS'na'
p6708
I6704
sS'nc'
p6709
I6705
sS'tip'
p6710
I1377
sS'ne'
p6711
I6707
sS'ny'
p6712
I6708
sS'tin'
p6713
I6709
sS'setting'
p6714
I6710
sS'whet'
p6715
I6711
sS'papers'
p6716
I6712
sS'tie'
p6717
I6713
sS'depot'
p6718
I6714
sS'nt'
p6719
I6715
sS'nu'
p6720
I6716
sS'nw'
p6721
I6717
sS'node'
p6722
I6718
sS'picture'
p6723
I6719
sS'sink'
p6724
I6720
sS'toad'
p6725
I6721
sS'football'
p6726
I6722
sS'cooper'
p6727
I6724
sS'scratchy'
p6728
I6725
sS'longer'
p6729
I6726
sS'bullet'
p6730
I6727
sS'tested'
p6731
I6728
sS'navel'
p6732
I6729
sS'yacht'
p6733
I6730
sS'vietnam'
p6734
I6731
sS'neighbors'
p6735
I6732
sS'coach'
p6736
I6733
sS'rom'
p6737
I6734
sS'rob'
p6738
I6735
sS'rod'
p6739
I6736
sS'rot'
p6740
I6737
sS'row'
p6741
I6738
sS'essentials'
p6742
I6739
sS'passage'
p6743
I6740
sS'environment'
p6744
I6741
sS'charge'
p6745
I6742
sS'discovering'
p6746
I6743
sS'federation'
p6747
I6744
sS'advantage'
p6748
I6745
sS'tubby'
p6749
I6746
sS'trident'
p6750
I6747
sS'tanks'
p6751
I6748
sS'cook'
p6752
I6749
sS'li'
p6753
I6750
sS'cool'
p6754
I6751
sS'clouds'
p6755
I6752
sS'impressive'
p6756
I6753
sS'level'
p6757
I6754
sS'philippines'
p6758
I6755
sS'hawaii'
p6759
I6756
sS'cloudy'
p6760
I6757
sS'standards'
p6761
I6758
sS'planning'
p6762
I8108
sS'quick'
p6763
I6759
sS'pork'
p6764
I6760
sS'porn'
p6765
I6761
sS'trend'
p6766
I6762
sS'obsolete'
p6767
I6763
sS'rectangles'
p6768
I6764
sS'inland'
p6769
I6765
sS'dried'
p6770
I6766
sS'ottoman'
p6771
I6767
sS'bales'
p6772
I6768
sS'port'
p6773
I6769
sS'drinks'
p6774
I6770
sS'constitution'
p6775
I6771
sS'spire'
p6776
I6772
sS'tarmac'
p6777
I6773
sS'goes'
p6778
I6774
sS'reply'
p6779
I6775
sS'bearers'
p6780
I6776
sS'hairy'
p6781
I6777
sS'den'
p6782
I6778
sS'mali'
p6783
I6779
sS'water'
p6784
I6780
sS'witch'
p6785
I6781
sS'groups'
p6786
I6782
sS'lawnmower'
p6787
I6783
sS'seagull'
p6788
I6784
sS'beanbag'
p6789
I6785
sS'tire'
p6790
I6787
sS'thirty'
p6791
I6788
sS'healthy'
p6792
I6789
sS'pearls'
p6793
I6790
sS'guilty'
p6794
I6791
sS'needlepoint'
p6795
I6792
sS'prude'
p6796
I6793
sS'mccormick'
p6797
I6794
sS'compare'
p6798
I6795
sS'thrum'
p6799
I6796
sS'touchdown'
p6800
I6797
sS'trinidad'
p6801
I6798
sS'bulbs'
p6802
I6799
sS'russell'
p6803
I6800
sS'gallop'
p6804
I6801
sS'tubes'
p6805
I6802
sS'sports'
p6806
I6803
sS'handles'
p6807
I6804
sS'prey'
p6808
I6805
sS'memory'
p6809
I6806
sS'candidates'
p6810
I8115
sS'australian'
p6811
I6808
sS'symmetrical'
p6812
I6809
sS'today'
p6813
I6810
sS'chapter'
p6814
I6811
sS'conductor'
p6815
I6812
sS'altar'
p6816
I6813
sS'cashier'
p6817
I6814
sS'chocolate'
p6818
I6815
sS'carnival'
p6819
I4816
sS'teaser'
p6820
I6817
sS'prophecy'
p6821
I6818
sS'autumn'
p6822
I6819
sS'judo'
p6823
I6820
sS'edible'
p6824
I6821
sS'collision'
p6825
I6822
sS'local'
p6826
I8119
sS'modified'
p6827
I6824
sS'longitude'
p6828
I6825
sS'ferry'
p6829
I6826
sS'laughter'
p6830
I6827
sS'streak'
p6831
I6828
sS'dropper'
p6832
I6829
sS'nursing'
p6833
I6250
sS'figure'
p6834
I6831
sS'geeks'
p6835
I6832
sS'critic'
p6836
I6833
sS'skater'
p6837
I6834
sS'sailboat'
p6838
I6835
sS'cuba'
p6839
I8122
sS'cardinal'
p6840
I6837
sS'tapestry'
p6841
I6838
sS'flavored'
p6842
I6839
sS'cocktail'
p6843
I6840
sS'information'
p6844
I6841
sS'siren'
p6845
I6842
sS'islamic'
p6846
I6843
sS'boards'
p6847
I6844
sS'classroom'
p6848
I6845
sS'branches'
p6849
I6846
sS'liquid'
p6850
I6847
sS'inform'
p6851
I6848
sS'reaper'
p6852
I6849
sS'hilltop'
p6853
I6850
sS'barfly'
p6854
I6851
sS'acts'
p6855
I5462
sS'midnight'
p6856
I6854
sS'blare'
p6857
I6855
sS'fangs'
p6858
I6856
sS'worship'
p6859
I6857
sS'apes'
p6860
I6858
sS'courthouse'
p6861
I6859
sS'wordy'
p6862
I8127
sS'platform'
p6863
I6861
sS'offers'
p6864
I6862
sS'farmer'
p6865
I6863
sS'swans'
p6866
I6864
sS'meridian'
p6867
I6865
sS'happened'
p6868
I6866
sS'lonely'
p6869
I6867
sS'moms'
p6870
I6868
sS'tulip'
p6871
I6869
sS'hamilton'
p6872
I6870
sS'fern'
p6873
I6871
sS'remaindered'
p6874
I6872
sS'term'
p6875
I6873
sS'equality'
p6876
I6874
sS'name'
p6877
I6875
sS'opera'
p6878
I6876
sS'corners'
p6879
I6877
sS'academy'
p6880
I8059
sS'synchronize'
p6881
I6878
sS'bats'
p6882
I6879
sS'horning'
p6883
I6880
sS'trunks'
p6884
I6881
sS'torch'
p6885
I6882
sS'trademark'
p6886
I8174
sS'zebra'
p6887
I6883
sS'distributor'
p6888
I6884
sS'obsession'
p6889
I6885
sS'sunrise'
p6890
I6886
sS'oklahoma'
p6891
I6887
sS'factory'
p6892
I6888
sS'eagle'
p6893
I384
sS'theory'
p6894
I6890
sS'hull'
p6895
I6891
sS'waterfalls'
p6896
I8130
sS'hulk'
p6897
I6892
sS'oasis'
p6898
I6893
sS'flyer'
p6899
I52
sS'miss'
p6900
I6895
sS'calories'
p6901
I6896
sS'motion'
p6902
I6897
sS'turn'
p6903
I6898
sS'butterflies'
p6904
I6899
sS'place'
p6905
I6900
sS'lactation'
p6906
I6901
sS'swing'
p6907
I6902
sS'turd'
p6908
I6903
sS'ammo'
p6909
I6904
sS'pelican'
p6910
I6905
sS'revenue'
p6911
I6906
sS'coming'
p6912
I6907
sS'cuzco'
p6913
I6908
sS'bobcat'
p6914
I6909
sS'george'
p6915
I6910
sS'engineer'
p6916
I6911
sS'earths'
p6917
I6912
sS'district'
p6918
I6913
sS'opus'
p6919
I6914
sS'trillion'
p6920
I6915
sS'europe'
p6921
I8134
sS'plastic'
p6922
I6916
sS'bahamas'
p6923
I6917
sS'aromatherapy'
p6924
I6918
sS'returns'
p6925
I188
sS'quirks'
p6926
I6920
sS'convention'
p6927
I197
sS'legally'
p6928
I6922
sS'circa'
p6929
I6923
sS'gives'
p6930
I6924
sS'hug'
p6931
I6925
sS'hub'
p6932
I6669
sS'cope'
p6933
I6927
sS'revue'
p6934
I6928
sS'season'
p6935
I6929
sS'montenegro'
p6936
I228
sS'hut'
p6937
I6931
sS'cops'
p6938
I242
sS'copy'
p6939
I6933
sS'holder'
p6940
I6934
sS'population'
p6941
I6935
sS'wide'
p6942
I6936
sS'debussy'
p6943
I6937
sS'oats'
p6944
I6938
sS'r'
p6945
I6939
sS'cards'
p6946
I6940
sS'mariner'
p6947
I6941
sS'powder'
p6948
I465
sS'and'
p6949
I6943
sS'rend'
p6950
I6944
sS'pro'
p6951
I6945
sS'reno'
p6952
I6946
sS'ant'
p6953
I6947
sS'scorecard'
p6954
I6948
sS'tanning'
p6955
I360
sS'rent'
p6956
I6950
sS'any'
p6957
I6951
sS'marathon'
p6958
I6952
sS'superman'
p6959
I6953
sS'prosperity'
p6960
I6954
sS'silhouette'
p6961
I6955
sS'ideas'
p6962
I6956
sS'phillips'
p6963
I1581
sS'ideal'
p6964
I6958
sS'animation'
p6965
I6959
sS'fracture'
p6966
I6960
sS'thermometer'
p6967
I405
sS'sorority'
p6968
I6962
sS'malts'
p6969
I6963
sS'benin'
p6970
I6964
sS'surf'
p6971
I6965
sS'hooves'
p6972
I6966
sS'hoover'
p6973
I6967
sS'aspen'
p6974
I425
sS'equestrian'
p6975
I6969
sS'tornado'
p6976
I6970
sS'neutrinos'
p6977
I6971
sS'falls'
p6978
I6972
sS'visitors'
p6979
I6973
sS'donation'
p6980
I6974
sS'net'
p6981
I6975
sS'freshman'
p6982
I6976
sS'librarian'
p6983
I6977
sS'littering'
p6984
I6978
sS'icon'
p6985
I6979
sS'pencils'
p6986
I6980
sS'seafood'
p6987
I6981
sS'later'
p6988
I474
sS'hungry'
p6989
I6983
sS'beaded'
p6990
I6984
sS'uncle'
p6991
I6985
sS'senior'
p6992
I6986
sS'quantity'
p6993
I6987
sS'detective'
p6994
I4577
sS'perch'
p6995
I6989
sS'gaff'
p6996
I6990
sS'workshops'
p6997
I6991
sS'recipe'
p6998
I522
sS'troy'
p6999
I6993
sS'southwestern'
p7000
I6994
sS'mister'
p7001
I6996
sS'trot'
p7002
I6997
sS'madonna'
p7003
I6998
sS'nectarine'
p7004
I559
sS'gull'
p7005
I7000
sS'crime'
p7006
I7001
sS'wood'
p7007
I7002
sS'passing'
p7008
I7003
sS'wool'
p7009
I7004
sS'subjugated'
p7010
I7005
sS'presbyterian'
p7011
I7006
sS'jazz'
p7012
I7007
sS'boilers'
p7013
I7008
sS'sss'
p7014
I7009
sS'moo'
p7015
I7010
sS'tailor'
p7016
I7011
sS'dye'
p7017
I7012
sS'hedge'
p7018
I7013
sS'trade'
p7019
I7014
sS'ssa'
p7020
I7015
sS'antler'
p7021
I7016
sS'aluminum'
p7022
I7017
sS'orphans'
p7023
I7018
sS'joker'
p7024
I667
sS'jokes'
p7025
I7020
sS'penguins'
p7026
I672
sS'clowns'
p7027
I6523
sS'registry'
p7028
I7023
sS'orioles'
p7029
I7662
sS'microphones'
p7030
I7025
sS'reveals'
p7031
I7026
sS'picnic'
p7032
I7027
sS'signs'
p7033
I7028
sS'turntable'
p7034
I7029
sS'college'
p7035
I7030
sS'parking'
p7036
I7031
sS'stanley'
p7037
I7032
sS'heavy'
p7038
I7033
sS'turbine'
p7039
I7034
sS'mortgage'
p7040
I7036
sS'ways'
p7041
I2809
sS'review'
p7042
I7038
sS'definite'
p7043
I7039
sS'spoons'
p7044
I770
sS'keg'
p7045
I7041
sS'outside'
p7046
I7042
sS'roots'
p7047
I7043
sS'fearless'
p7048
I7044
sS'guitar'
p7049
I7045
sS'galore'
p7050
I7046
sS'cities'
p7051
I7047
sS'come'
p7052
I7048
sS'postage'
p7053
I7049
sS'reaction'
p7054
I7050
sS'libya'
p7055
I7051
sS'region'
p7056
I7052
sS'parts'
p7057
I7446
sS'contract'
p7058
I7053
sS'columnist'
p7059
I7054
sS'berry'
p7060
I7055
sS'senator'
p7061
I7056
sS'railway'
p7062
I7057
sS'snarly'
p7063
I7058
sS'duty'
p7064
I7059
sS'pakistan'
p7065
I7060
sS'cabal'
p7066
I7061
sS'merry'
p7067
I7062
sS'colons'
p7068
I7063
sS'bricks'
p7069
I7064
sS'armchair'
p7070
I892
sS'pot'
p7071
I7066
sS'period'
p7072
I7067
sS'pop'
p7073
I7068
sS'satisfaction'
p7074
I7069
sS'pole'
p7075
I7070
sS'colon'
p7076
I7071
sS'polo'
p7077
I7072
sS'pod'
p7078
I923
sS'poe'
p7079
I7074
sS'polk'
p7080
I7075
sS'runaway'
p7081
I7076
sS'turkey'
p7082
I7077
sS'consultancy'
p7083
I7078
sS'coupe'
p7084
I7079
sS'subscriber'
p7085
I7080
sS'helicopter'
p7086
I7081
sS'cords'
p7087
I976
sS'ravioli'
p7088
I7083
sS'engine'
p7089
I7084
sS'direction'
p7090
I7085
sS'blessing'
p7091
I7086
sS'andrew'
p7092
I7087
sS'tiger'
p7093
I7088
sS'padlock'
p7094
I7089
sS'penn'
p7095
I7090
sS'eaters'
p7096
I7091
sS'spirit'
p7097
I1049
sS'robber'
p7098
I7093
sS'pilot'
p7099
I7094
sS'case'
p7100
I7095
sS'shaft'
p7101
I7096
sS'myself'
p7102
I7097
sS'gingery'
p7103
I7098
sS'mount'
p7104
I7099
sS'cash'
p7105
I7100
sS'arnold'
p7106
I7101
sS'cast'
p7107
I7102
sS'slippery'
p7108
I7103
sS'slippers'
p7109
I7104
sS'vest'
p7110
I7105
sS'chopstick'
p7111
I1120
sS'couples'
p7112
I7107
sS'grinder'
p7113
I7108
sS'helmet'
p7114
I7109
sS'revolutions'
p7115
I7110
sS'author'
p7116
I7111
sS'alphabet'
p7117
I7112
sS'granted'
p7118
I7113
sS'seeking'
p7119
I7114
sS'bowl'
p7120
I7115
sS'mole'
p7121
I7116
sS'bows'
p7122
I7117
sS'macaroni'
p7123
I7118
sS'manila'
p7124
I7119
sS'buys'
p7125
I7120
sS'reminder'
p7126
I7121
sS'events'
p7127
I1198
sS'derby'
p7128
I7123
sS'status'
p7129
I1203
sS'downloads'
p7130
I1217
sS'driver'
p7131
I7126
sS'drives'
p7132
I7127
sS'weed'
p7133
I7128
sS'director'
p7134
I7129
sS'submarines'
p7135
I7130
sS'petticoat'
p7136
I7131
sS'statue'
p7137
I7132
sS'footprint'
p7138
I7133
sS'cartoon'
p7139
I7134
sS'pennsylvania'
p7140
I7135
sS'no'
p7141
I6703
sS'eureka'
p7142
I7137
sS'without'
p7143
I7138
sS'relief'
p7144
I7139
sS'model'
p7145
I7140
sS'reward'
p7146
I1284
sS'bodies'
p7147
I7142
sS'brisbane'
p7148
I7143
sS'nd'
p7149
I6706
sS'guided'
p7150
I7145
sS'kilt'
p7151
I7146
sS'actress'
p7152
I7147
sS'kill'
p7153
I7148
sS'harrison'
p7154
I7149
sS'mongoose'
p7155
I7150
sS'polish'
p7156
I7151
sS'satin'
p7157
I7152
sS'guides'
p7158
I7153
sS'captured'
p7159
I7154
sS'halfway'
p7160
I7155
sS'blow'
p7161
I7156
sS'announcement'
p7162
I7157
sS'corks'
p7163
I7158
sS'blot'
p7164
I7159
sS'gentleness'
p7165
I7160
sS'rose'
p7166
I7161
sS'wall'
p7167
I8161
sS'thimble'
p7168
I7163
sS'blob'
p7169
I1363
sS'samples'
p7170
I7165
sS'sampler'
p7171
I7166
sS'scrapbook'
p7172
I7167
sS'ross'
p7173
I7168
sS'styles'
p7174
I7169
sS'rushmore'
p7175
I7170
sS'delhi'
p7176
I7171
sS'fridge'
p7177
I7172
sS'color'
p7178
I7173
sS'furniture'
p7179
I7174
sS'acute'
p7180
I7175
sS'towel'
p7181
I7176
sS'kennedy'
p7182
I7177
sS'patrick'
p7183
I7178
sS'buddies'
p7184
I7179
sS'bracelet'
p7185
I7180
sS'coping'
p7186
I7182
sS'tower'
p7187
I7183
sS'deduct'
p7188
I7184
sS'passers'
p7189
I7185
sS'pacific'
p7190
I768
sS'perspiration'
p7191
I7187
sS'tarot'
p7192
I7188
sS'cowboys'
p7193
I7189
sS'musician'
p7194
I7921
sS'swimsuit'
p7195
I7190
sS'provided'
p7196
I7191
sS'slice'
p7197
I7192
sS'caribbean'
p7198
I7193
sS'overstay'
p7199
I1536
sS'teachings'
p7200
I7195
sS'shirtless'
p7201
I7196
sS'classmates'
p7202
I7197
sS'legal'
p7203
I7199
sS'moon'
p7204
I7200
sS'buddha'
p7205
I7201
sS'compulsion'
p7206
I7202
sS'porter'
p7207
I7203
sS'quit'
p7208
I7204
sS'nails'
p7209
I7205
sS'outreach'
p7210
I7206
sS'fabled'
p7211
I7207
sS'on'
p7212
I7208
sS'om'
p7213
I7209
sS'ok'
p7214
I7210
sS'oh'
p7215
I7211
sS'jeep'
p7216
I7212
sS'of'
p7217
I7213
sS'od'
p7218
I7214
sS'ob'
p7219
I7215
sS'shrimp'
p7220
I7216
sS'informing'
p7221
I7217
sS'stand'
p7222
I7218
sS'or'
p7223
I7220
sS'op'
p7224
I7221
sS'amber'
p7225
I7222
sS'tribe'
p7226
I7223
sS'ladies'
p7227
I7224
sS'cambridge'
p7228
I7225
sS'abuse'
p7229
I7958
sS'instruments'
p7230
I7227
sS'garner'
p7231
I7228
sS'spinal'
p7232
I7229
sS'rising'
p7233
I1724
sS'gary'
p7234
I7231
sS'syringe'
p7235
I7232
sS'mental'
p7236
I7233
sS'whales'
p7237
I7234
sS'there'
p7238
I7235
sS'aquaculture'
p7239
I7236
sS'strong'
p7240
I7237
sS'cultures'
p7241
I7238
sS'valley'
p7242
I7239
sS'fish'
p7243
I433
sS'morrison'
p7244
I7241
sS'relic'
p7245
I7242
sS'jug'
p7246
I1792
sS'kittens'
p7247
I7244
sS'reduce'
p7248
I7245
sS'jun'
p7249
I7246
sS'jul'
p7250
I7247
sS'cabinet'
p7251
I1813
sS'trivium'
p7252
I7249
sS'promote'
p7253
I7250
sS'faster'
p7254
I7251
sS'grass'
p7255
I7252
sS'chaplin'
p7256
I7253
sS'toilet'
p7257
I7254
sS'taylor'
p7258
I7255
sS'cinema'
p7259
I7256
sS'taste'
p7260
I7257
sS'minneapolis'
p7261
I7258
sS'cbs'
p7262
I7259
sS'britain'
p7263
I7260
sS'headwaters'
p7264
I1914
sS'orchards'
p7265
I7262
sS'politics'
p7266
I7263
sS'bishop'
p7267
I7264
sS'blues'
p7268
I8023
sS'biochemistry'
p7269
I7265
sS'swords'
p7270
I7266
sS'insurance'
p7271
I7267
sS'rubber'
p7272
I7268
sS'roses'
p7273
I7269
sS'trash'
p7274
I7270
sS'paddy'
p7275
I7271
sS'championship'
p7276
I7272
sS'pillows'
p7277
I7273
sS'symbol'
p7278
I7274
sS'whiskers'
p7279
I7275
sS'cove'
p7280
I7276
sS'carnegie'
p7281
I7277
sS'includes'
p7282
I7278
sS'gutenberg'
p7283
I7279
sS'lovers'
p7284
I7280
sS'bullets'
p7285
I7281
sS'hornpipe'
p7286
I7282
sS'brass'
p7287
I7283
sS'stocks'
p7288
I7284
sS'architecture'
p7289
I7198
sS'assassins'
p7290
I7286
sS'applause'
p7291
I7287
sS'calls'
p7292
I7288
sS'wife'
p7293
I7289
sS'invest'
p7294
I7290
sS'curve'
p7295
I7291
sS'parsons'
p7296
I7292
sS'barcelona'
p7297
I2055
sS'missouri'
p7298
I7294
sS'directory'
p7299
I7295
sS'platter'
p7300
I7296
sS'all'
p7301
I7297
sS'lace'
p7302
I7298
sS'cough'
p7303
I4139
sS'tarry'
p7304
I2091
sS'ala'
p7305
I7301
sS'ladders'
p7306
I7302
sS'spacecraft'
p7307
I7303
sS'disc'
p7308
I7304
sS'dish'
p7309
I7305
sS'lacy'
p7310
I7306
sS'meditation'
p7311
I7307
sS'disk'
p7312
I7308
sS'alcatraz'
p7313
I2119
sS'apartment'
p7314
I7310
sS'catastrophe'
p7315
I7311
sS'thursday'
p7316
I7312
sS'removal'
p7317
I7313
sS'aaron'
p7318
I7314
sS'program'
p7319
I7315
sS'dairy'
p7320
I7316
sS'present'
p7321
I8187
sS'crest'
p7322
I2153
sS'activities'
p7323
I7319
sS'woman'
p7324
I7320
sS'egyptian'
p7325
I2173
sS'fat'
p7326
I7322
sS'print'
p7327
I7323
sS'psychologist'
p7328
I7324
sS'novel'
p7329
I7325
sS'fan'
p7330
I7326
sS'awful'
p7331
I7327
sS'bubbles'
p7332
I2204
sS'gangly'
p7333
I7329
sS'list'
p7334
I7331
sS'grandfather'
p7335
I7332
sS'vibes'
p7336
I7333
sS'highway'
p7337
I7334
sS'liars'
p7338
I7335
sS'align'
p7339
I8191
sS'programme'
p7340
I7337
sS'rats'
p7341
I7338
sS'ten'
p7342
I7339
sS'tea'
p7343
I7340
sS'tee'
p7344
I7341
sS'rate'
p7345
I7342
sS'invention'
p7346
I7343
sS'cuss'
p7347
I1711
sS'nbc'
p7348
I7345
sS'nba'
p7349
I7346
sS'aptly'
p7350
I7347
sS'cheeses'
p7351
I7348
sS'what'
p7352
I7349
sS'gunk'
p7353
I2309
sS'deeply'
p7354
I2315
sS'sum'
p7355
I7352
sS'brief'
p7356
I6723
sS'suv'
p7357
I7354
sS'version'
p7358
I7355
sS'racing'
p7359
I7356
sS'cruse'
p7360
I2347
sS'multitude'
p7361
I7358
sS'toes'
p7362
I7359
sS'ruffle'
p7363
I2361
sS'tags'
p7364
I7361
sS'mayoral'
p7365
I7362
sS'toed'
p7366
I7364
sS'compressed'
p7367
I7365
sS'directions'
p7368
I7366
sS'peccary'
p7369
I7367
sS'thrift'
p7370
I7368
sS'naval'
p7371
I7369
sS'siamese'
p7372
I7370
sS'allows'
p7373
I7371
sS'cucumbers'
p7374
I7372
sS'jogger'
p7375
I4204
sS'supplements'
p7376
I7374
sS'options'
p7377
I7375
sS'layer'
p7378
I8196
sS'screens'
p7379
I7377
sS'semester'
p7380
I7378
sS'footwear'
p7381
I7379
sS'appliances'
p7382
I2488
sS'coatings'
p7383
I7381
sS'warship'
p7384
I6049
sS'donuts'
p7385
I7383
sS'markets'
p7386
I7384
sS'minor'
p7387
I7385
sS'horses'
p7388
I7386
sS'flat'
p7389
I5760
sS'israel'
p7390
I7388
sS'flap'
p7391
I7389
sS'tobacco'
p7392
I8089
sS'oboe'
p7393
I7390
sS'crested'
p7394
I7391
sS'melon'
p7395
I7392
sS'flag'
p7396
I7393
sS'keyhole'
p7397
I2577
sS'stick'
p7398
I7395
sS'pews'
p7399
I8199
sS'glad'
p7400
I7397
sS'salvador'
p7401
I7398
sS'primate'
p7402
I7399
sS'equation'
p7403
I7400
sS'policemen'
p7404
I7401
sS'wrestler'
p7405
I7402
sS'perverts'
p7406
I7403
sS'finland'
p7407
I7404
sS'pony'
p7408
I7405
sS'joints'
p7409
I7406
sS'conspire'
p7410
I7407
sS'sunscreen'
p7411
I7408
sS'pond'
p7412
I7409
sS'airplane'
p7413
I7410
sS'court'
p7414
I7411
sS'dreads'
p7415
I2711
sS'breaking'
p7416
I7413
sS'speeding'
p7417
I7414
sS'goat'
p7418
I7415
sS'sandwich'
p7419
I7416
sS'okay'
p7420
I7417
sS'fungus'
p7421
I2793
sS'catalog'
p7422
I7419
sS'lighting'
p7423
I7420
sS'adventure'
p7424
I7421
sS'ballads'
p7425
I7422
sS'merman'
p7426
I7423
sS'short'
p7427
I7424
sS'shore'
p7428
I7425
sS'shade'
p7429
I7426
sS'rentals'
p7430
I7427
sS'lifeguards'
p7431
I7428
sS'headlight'
p7432
I8204
sS'tallahassee'
p7433
I7430
sS'handlebars'
p7434
I7431
sS'botany'
p7435
I7432
sS'september'
p7436
I7433
sS'developed'
p7437
I7434
sS'mission'
p7438
I7435
sS'scientist'
p7439
I7436
sS'milwaukee'
p7440
I7437
sS'avenue'
p7441
I7438
sS'inquiries'
p7442
I7439
sS'developer'
p7443
I2909
sS'style'
p7444
I7441
sS'pray'
p7445
I7442
sS'abbey'
p7446
I7443
sS'mattress'
p7447
I7444
sS'resort'
p7448
I7445
sS'scot'
p7449
I2932
sS'argentina'
p7450
I2748
sS'soccer'
p7451
I7448
sS'pram'
p7452
I2940
sS'lunar'
p7453
I7450
sS'return'
p7454
I2295
sS'hunter'
p7455
I7452
sS'predator'
p7456
I7453
sS'clippers'
p7457
I7454
sS'underground'
p7458
I7455
sS'cigarettes'
p7459
I7456
sS'huskies'
p7460
I7457
sS'accumulate'
p7461
I7458
sS'valentine'
p7462
I7459
sS'bigger'
p7463
I7460
sS'instructions'
p7464
I7461
sS'athletics'
p7465
I7462
sS'friendship'
p7466
I7463
sS'pirates'
p7467
I7464
sS'weight'
p7468
I7465
sS'generation'
p7469
I7466
sS'pawnee'
p7470
I7467
sS'brother'
p7471
I7468
sS'loops'
p7472
I7469
sS'alcohol'
p7473
I7470
sS'nepal'
p7474
I7471
sS'hilt'
p7475
I7472
sS'hydraulic'
p7476
I7473
sS'health'
p7477
I7474
sS'hill'
p7478
I7475
sS'bazooka'
p7479
I7476
sS'fiber'
p7480
I7477
sS'wisconsin'
p7481
I7478
sS'roofs'
p7482
I7479
sS'gut'
p7483
I2029
sS'cookie'
p7484
I7481
sS'heads'
p7485
I7482
sS'teach'
p7486
I7483
sS'generate'
p7487
I7484
sS'guest'
p7488
I7485
sS'bushes'
p7489
I7486
sS'hardware'
p7490
I7487
sS'thread'
p7491
I7488
sS'seahorse'
p7492
I7489
sS'stampede'
p7493
I7490
sS'threat'
p7494
I1577
sS'snowboarding'
p7495
I7492
sS'feed'
p7496
I7493
sS'dine'
p7497
I7494
sS'usda'
p7498
I7495
sS'feel'
p7499
I7496
sS'sydney'
p7500
I7497
sS'fancy'
p7501
I7498
sS'feet'
p7502
I7499
sS'sympathy'
p7503
I7500
sS'sailor'
p7504
I7501
sS'notify'
p7505
I7502
sS'fees'
p7506
I3232
sS'intestine'
p7507
I7504
sS'idea'
p7508
I7248
sS'story'
p7509
I7506
sS'temperature'
p7510
I7507
sS'script'
p7511
I7508
sS'gourmet'
p7512
I7509
sS'leading'
p7513
I7510
sS'stork'
p7514
I7511
sS'sandcastle'
p7515
I7512
sS'passed'
p7516
I3277
sS'moat'
p7517
I7514
sS'syrup'
p7518
I7515
sS'store'
p7519
I7516
sS'headache'
p7520
I7517
sS'checklist'
p7521
I7518
sS'hotel'
p7522
I7519
sS'optical'
p7523
I7520
sS'rifle'
p7524
I7521
sS'reflection'
p7525
I7522
sS'king'
p7526
I7523
sS'kind'
p7527
I7524
sS'throttle'
p7528
I7525
sS'double'
p7529
I7526
sS'instruction'
p7530
I7527
sS'pinups'
p7531
I7528
sS'awakenings'
p7532
I7529
sS'cuff'
p7533
I2275
sS'risks'
p7534
I7531
sS'outdoors'
p7535
I7532
sS'dang'
p7536
I7533
sS'undiplomatic'
p7537
I7534
sS'tongues'
p7538
I7535
sS'uniforms'
p7539
I7536
sS'skyscrapers'
p7540
I7537
sS'outstanding'
p7541
I7538
sS'imports'
p7542
I7539
sS'takeoff'
p7543
I7540
sS'garfield'
p7544
I7541
sS'gala'
p7545
I7542
sS'rugs'
p7546
I7543
sS'wipers'
p7547
I7544
sS'wilson'
p7548
I7545
sS'nights'
p7549
I7546
sS'judah'
p7550
I7547
sS'check'
p7551
I7548
sS'tired'
p7552
I7549
sS'bacteria'
p7553
I7550
sS'chairman'
p7554
I7551
sS'finding'
p7555
I7552
sS'sherry'
p7556
I7553
sS'banjo'
p7557
I7554
sS'gill'
p7558
I7555
sS'added'
p7559
I7556
sS'electric'
p7560
I7557
sS'rucksack'
p7561
I7558
sS'customize'
p7562
I7559
sS'measures'
p7563
I7560
sS'reach'
p7564
I3480
sS'cigarette'
p7565
I7562
sS'miserly'
p7566
I7563
sS'nothing'
p7567
I7564
sS'splat'
p7568
I7565
sS'achievement'
p7569
I7566
sS'mineral'
p7570
I7567
sS'windows'
p7571
I7568
sS'traditional'
p7572
I7569
sS'amphibian'
p7573
I7570
sS'saloon'
p7574
I7571
sS'lying'
p7575
I7572
sS'zeppelin'
p7576
I7573
sS'stones'
p7577
I7574
sS'bending'
p7578
I8232
sS'loveseat'
p7579
I7576
sS'cdc'
p7580
I7577
sS'fond'
p7581
I1615
sS'melody'
p7582
I7579
sS'font'
p7583
I7580
sS'anvil'
p7584
I7581
sS'gymnasts'
p7585
I7582
sS'grotesque'
p7586
I7583
sS'moses'
p7587
I7584
sS'atv'
p7588
I7585
sS'hip'
p7589
I7586
sS'shepherd'
p7590
I7587
sS'his'
p7591
I7588
sS'hit'
p7592
I3657
sS'hiv'
p7593
I7590
sS'whistle'
p7594
I7591
sS'cote'
p7595
I2238
sS'longest'
p7596
I7593
sS'him'
p7597
I3686
sS'megadeath'
p7598
I7595
sS'nickelodeon'
p7599
I7596
sS'dossier'
p7600
I7597
sS'investigate'
p7601
I7598
sS'cartoons'
p7602
I7599
sS'activity'
p7603
I7600
sS'baroque'
p7604
I7601
sS'virginia'
p7605
I7602
sS'bars'
p7606
I7603
sS'art'
p7607
I3741
sS'dump'
p7608
I7605
sS'intelligence'
p7609
I7606
sS'arc'
p7610
I6786
sS'dumb'
p7611
I7608
sS'are'
p7612
I3767
sS'thistle'
p7613
I7610
sS'barf'
p7614
I7611
sS'bark'
p7615
I7612
sS'ark'
p7616
I7613
sS'arm'
p7617
I7614
sS'barn'
p7618
I3784
sS'recording'
p7619
I7616
sS'libraries'
p7620
I7617
sS'various'
p7621
I7618
sS'plywood'
p7622
I7619
sS'orbiting'
p7623
I7620
sS'solo'
p7624
I7621
sS'korea'
p7625
I5715
sS'creating'
p7626
I7623
sS'sold'
p7627
I7624
sS'sole'
p7628
I3852
sS'fatality'
p7629
I7626
sS'condo'
p7630
I7627
sS'bronze'
p7631
I7628
sS'c'
p7632
I7629
sS'prescription'
p7633
I7630
sS'license'
p7634
I7631
sS'movers'
p7635
I7632
sS'atp'
p7636
I7633
sS'roman'
p7637
I7634
sS'fraternity'
p7638
I7635
sS'baseball'
p7639
I7636
sS'rollers'
p7640
I7637
sS'finds'
p7641
I7638
sS'sloth'
p7642
I7639
sS'flies'
p7643
I7640
sS'sweet'
p7644
I7642
sS'sweep'
p7645
I7643
sS'harbour'
p7646
I7644
sS'village'
p7647
I7645
sS'rave'
p7648
I7646
sS'eyewitness'
p7649
I7647
sS'ps'
p7650
I7648
sS'suspenders'
p7651
I3976
sS'java'
p7652
I7650
sS'pw'
p7653
I7651
sS'duo'
p7654
I7652
sS'dub'
p7655
I7653
sS'political'
p7656
I7654
sS'buzzard'
p7657
I7655
sS'strategy'
p7658
I7656
sS'pc'
p7659
I7657
sS'reduction'
p7660
I7658
sS'pa'
p7661
I7659
sS'pd'
p7662
I7660
sS'pe'
p7663
I7661
sS'brick'
p7664
I4015
sS'pi'
p7665
I7663
sS'po'
p7666
I7664
sS'pm'
p7667
I7665
sS'referee'
p7668
I7666
sS'flight'
p7669
I7667
sS'flints'
p7670
I4039
sS'pedals'
p7671
I7669
sS'orchestral'
p7672
I7670
sS'precision'
p7673
I7671
sS'defect'
p7674
I7672
sS'rocking'
p7675
I7673
sS'toga'
p7676
I7674
sS'plants'
p7677
I7675
sS'georgia'
p7678
I7676
sS'pitchfork'
p7679
I7677
sS'moustache'
p7680
I7678
sS'strapless'
p7681
I7679
sS'demon'
p7682
I7680
sS'demos'
p7683
I7681
sS'rim'
p7684
I7682
sS'nightstand'
p7685
I7683
sS'quail'
p7686
I4178
sS'rib'
p7687
I7685
sS'meridians'
p7688
I4196
sS'minim'
p7689
I7687
sS'delicious'
p7690
I7688
sS'kimono'
p7691
I7689
sS'shire'
p7692
I7690
sS'viola'
p7693
I7691
sS'peoples'
p7694
I7692
sS'minis'
p7695
I7693
sS'itchy'
p7696
I7694
sS'spears'
p7697
I7695
sS'higher'
p7698
I7696
sS'literature'
p7699
I7697
sS'painless'
p7700
I7699
sS'cement'
p7701
I7700
sS'holidays'
p7702
I7701
sS'brooding'
p7703
I7702
sS'flown'
p7704
I7703
sS'moving'
p7705
I7704
sS'lower'
p7706
I7705
sS'noodle'
p7707
I7706
sS'spaceman'
p7708
I7707
sS'cheek'
p7709
I7708
sS'chickens'
p7710
I7709
sS'analysis'
p7711
I7710
sS'cheer'
p7712
I4304
sS'edge'
p7713
I7712
sS'montreal'
p7714
I7713
sS'magnifier'
p7715
I7714
sS'macintosh'
p7716
I7715
sS'hotdog'
p7717
I7716
sS'pollen'
p7718
I7717
sS'knot'
p7719
I8253
sS'competitive'
p7720
I4352
sS'sequencing'
p7721
I7720
sS'questions'
p7722
I7721
sS'continent'
p7723
I4379
sS'gems'
p7724
I7723
sS'tables'
p7725
I7724
sS'workers'
p7726
I7725
sS'humanoid'
p7727
I7726
sS'contractor'
p7728
I7727
sS'plateau'
p7729
I7728
sS'finder'
p7730
I7729
sS'customers'
p7731
I7730
sS'vendor'
p7732
I7731
sS'unlimited'
p7733
I7732
sS'spires'
p7734
I7733
sS'boost'
p7735
I7734
sS'awaken'
p7736
I7735
sS'jacksonville'
p7737
I7736
sS'moody'
p7738
I7737
sS'shapes'
p7739
I7738
sS'collect'
p7740
I7739
sS'arthur'
p7741
I7740
sS'nipple'
p7742
I7741
sS'breeder'
p7743
I7742
sS'essential'
p7744
I7743
sS'folders'
p7745
I7744
sS'hallmark'
p7746
I7745
sS'ecology'
p7747
I7746
sS'fucking'
p7748
I7747
sS'hinter'
p7749
I7748
sS'litter'
p7750
I7749
sS'clown'
p7751
I7750
sS'wonderland'
p7752
I7751
sS'newsletter'
p7753
I7752
sS'saucer'
p7754
I7753
sS'prow'
p7755
I7754
sS'prop'
p7756
I7755
sS'prom'
p7757
I7756
sS'innovation'
p7758
I7757
sS'prof'
p7759
I7758
sS'anne'
p7760
I7759
sS'bartender'
p7761
I7760
sS'martin'
p7762
I7761
sS'zombie'
p7763
I7762
sS'cannons'
p7764
I7763
sS'roundup'
p7765
I7764
sS'surfers'
p7766
I4717
sS'range'
p7767
I7766
sS'dialog'
p7768
I7767
sS'fantasia'
p7769
I7768
sS'wanna'
p7770
I7769
sS'gamma'
p7771
I7770
sS'johns'
p7772
I7771
sS'corsair'
p7773
I7772
sS'gavel'
p7774
I7773
sS'canal'
p7775
I7774
sS'sonny'
p7776
I7775
sS'rows'
p7777
I7776
sS'i'
p7778
I7777
sS'sequence'
p7779
I8265
sS'question'
p7780
I4825
sS'long'
p7781
I4829
sS'files'
p7782
I7781
sS'mountains'
p7783
I7782
sS'searching'
p7784
I8268
sS'fisheries'
p7785
I3510
sS'crank'
p7786
I7785
sS'delta'
p7787
I7786
sS'crane'
p7788
I7787
sS'junior'
p7789
I7788
sS'shutters'
p7790
I7789
sS'penguin'
p7791
I7790
sS'fries'
p7792
I7791
sS'z'
p7793
I4943
sS'called'
p7794
I7793
sS'bell'
p7795
I7794
sS'v'
p7796
I7795
sS'minutes'
p7797
I7796
sS'sepia'
p7798
I7797
sS'midwest'
p7799
I7798
sS'warning'
p7800
I4979
sS'rally'
p7801
I7800
sS'graham'
p7802
I7801
sS'rainbow'
p7803
I7802
sS'lemon'
p7804
I7803
sS'riot'
p7805
I7804
sS'peach'
p7806
I7805
sS'peace'
p7807
I7806
sS'towers'
p7808
I7330
sS'income'
p7809
I7808
sS'nice'
p7810
I7809
sS'dale'
p7811
I7810
sS'mustard'
p7812
I5065
sS'muskie'
p7813
I7812
sS'pennant'
p7814
I7813
sS'problems'
p7815
I5079
sS'breasts'
p7816
I7815
sS'helping'
p7817
I7816
sS'insect'
p7818
I5590
sS'wrinkle'
p7819
I7818
sS'pottery'
p7820
I7819
sS'lead'
p7821
I8274
sS'vice'
p7822
I7821
sS'foundry'
p7823
I7823
sS'nasa'
p7824
I7824
sS'thames'
p7825
I5142
sS'pyre'
p7826
I7826
sS'buffalo'
p7827
I7827
sS'scroll'
p7828
I7828
sS'once'
p7829
I7829
sS'wrestle'
p7830
I5162
sS'lean'
p7831
I8277
sS'resistance'
p7832
I7832
sS'lowland'
p7833
I7833
sS'alien'
p7834
I7834
sS'gang'
p7835
I7835
sS'magnifying'
p7836
I5197
sS'issues'
p7837
I7837
sS'rebels'
p7838
I7838
sS'cruiser'
p7839
I7839
sS'shanghai'
p7840
I7840
sS'languages'
p7841
I7841
sS'cradle'
p7842
I7842
sS'fences'
p7843
I7843
sS'sniper'
p7844
I7844
sS'rag'
p7845
I7845
sS'baronies'
p7846
I7846
sS'talons'
p7847
I7847
sS'spool'
p7848
I7848
sS'electron'
p7849
I5286
sS'spook'
p7850
I7850
sS'artery'
p7851
I7851
sS'drinking'
p7852
I7852
sS'tutu'
p7853
I7853
sS'solutions'
p7854
I7854
sS'notes'
p7855
I7855
sS'deals'
p7856
I7856
sS'unchain'
p7857
I7857
sS'settlers'
p7858
I7858
sS'booksellers'
p7859
I7859
sS'smaller'
p7860
I7860
sS'goodies'
p7861
I7861
sS'wrestling'
p7862
I7862
sS'cfc'
p7863
I7863
sS'fold'
p7864
I7864
sS'jude'
p7865
I7865
sS'reunion'
p7866
I7866
sS'folk'
p7867
I7867
sS'checkers'
p7868
I7868
sS'networks'
p7869
I7869
sS'waiting'
p7870
I7870
sS'capital'
p7871
I7871
sS'occupation'
p7872
I7872
sS'labyrinth'
p7873
I7873
sS'degree'
p7874
I7874
sS'flavoured'
p7875
I7875
sS'kangaroo'
p7876
I7876
sS'chokes'
p7877
I7877
sS'oars'
p7878
I7878
sS'cab'
p7879
I7879
sS'cyclist'
p7880
I5507
sS'barb'
p7881
I7881
sS'metro'
p7882
I4803
sS'pickle'
p7883
I7883
sS'cleopatra'
p7884
I7884
sS'larger'
p7885
I7885
sS'shades'
p7886
I7886
sS'calvin'
p7887
I7887
sS'leaving'
p7888
I7888
sS'headless'
p7889
I7889
sS'armpit'
p7890
I7890
sS'spices'
p7891
I7891
sS'pajama'
p7892
I7892
sS'bare'
p7893
I7893
sS'shovel'
p7894
I7894
sS'apple'
p7895
I7895
sS'deputy'
p7896
I5066
sS'egypt'
p7897
I7897
sS'hardy'
p7898
I7898
sS'performer'
p7899
I7899
sS'motor'
p7900
I7900
sS'cheerleader'
p7901
I5605
sS'apb'
p7902
I7902
sS'apply'
p7903
I7903
sS'trump'
p7904
I6830
sS'use'
p7905
I2707
sS'lottery'
p7906
I5565
sS'hippie'
p7907
I5637
sS'usa'
p7908
I7908
sS'iced'
p7909
I7909
sS'doodle'
p7910
I7910
sS'frog'
p7911
I5649
sS'germ'
p7912
I7912
sS'few'
p7913
I7913
sS'uss'
p7914
I7914
sS'weeping'
p7915
I7915
sS'timing'
p7916
I7916
sS'eagles'
p7917
I7917
sS'fez'
p7918
I7918
sS'automobile'
p7919
I7919
sS'porch'
p7920
I7920
sS'factor'
p7921
I3499
sS'vesicle'
p7922
I7922
sS'antennae'
p7923
I7923
sS'parrots'
p7924
I7924
sS'rabbit'
p7925
I7925
sS'brochure'
p7926
I7926
sS'women'
p7927
I7927
sS'islamabad'
p7928
I7928
sS'saddle'
p7929
I7929
sS'anywhere'
p7930
I7930
sS'tap'
p7931
I7931
sS'mowing'
p7932
I7932
sS'carrot'
p7933
I5776
sS'hilton'
p7934
I7934
sS'something'
p7935
I7935
sS'tab'
p7936
I7936
sS'chic'
p7937
I7937
sS'serial'
p7938
I5783
sS'healthfully'
p7939
I7939
sS'rape'
p7940
I7940
sS'counterfeit'
p7941
I7941
sS'summers'
p7942
I5798
sS'sip'
p7943
I5802
sS'syndrome'
p7944
I7944
sS'guru'
p7945
I5806
sS'scotch'
p7946
I7946
sS'traders'
p7947
I6071
sS'swear'
p7948
I8053
sS'mccoy'
p7949
I7949
sS'toddler'
p7950
I7950
sS'panic'
p7951
I7951
sS'memoir'
p7952
I5836
sS'typewriter'
p7953
I7953
sS'puppets'
p7954
I7954
sS'cupboard'
p7955
I7955
sS'doodlebug'
p7956
I7956
sS'hazard'
p7957
I7957
sS'tack'
p7958
I2518
sS'wrist'
p7959
I7959
sS'pippin'
p7960
I8149
sS'ethnic'
p7961
I2426
sS'footpath'
p7962
I7961
sS'psychedelic'
p7963
I7962
sS'gargoyles'
p7964
I7963
sS'highlands'
p7965
I7964
sS'martins'
p7966
I7965
sS'light'
p7967
I7966
sS'straps'
p7968
I7967
sS'hum'
p7969
I7968
sS'necklace'
p7970
I7969
sS'martini'
p7971
I7970
sS'sanctioned'
p7972
I7971
sS'minnow'
p7973
I7972
sS'hemp'
p7974
I7973
sS'looks'
p7975
I7974
sS'tyrant'
p7976
I5951
sS'glen'
p7977
I7976
sS'underwater'
p7978
I5966
sS'wilderness'
p7979
I8309
sS'reeve'
p7980
I7979
sS'carols'
p7981
I7980
sS'ships'
p7982
I7981
sS'nostalgia'
p7983
I7982
sS'choose'
p7984
I7983
sS'turban'
p7985
I7984
sS'covered'
p7986
I7985
sS'holiday'
p7987
I7986
sS'crowds'
p7988
I7987
sS'pending'
p7989
I7988
sS'rsvp'
p7990
I7989
sS'magnet'
p7991
I7990
sS'freeman'
p7992
I7991
sS'crash'
p7993
I7992
sS'citrus'
p7994
I7993
sS'material'
p7995
I6022
sS'barbeque'
p7996
I8147
sS'oranges'
p7997
I7995
sS'snoopy'
p7998
I7996
sS'emerald'
p7999
I6041
sS'flea'
p8000
I7998
sS'republican'
p8001
I7999
sS'investor'
p8002
I8000
sS'crass'
p8003
I8001
sS'articles'
p8004
I6061
sS'easel'
p8005
I8003
sS'clippings'
p8006
I8004
sS'sleeve'
p8007
I8005
sS'drummers'
p8008
I8006
sS'edit'
p8009
I6070
sS'nfl'
p8010
I8008
sS'feast'
p8011
I8009
sS'ale'
p8012
I8010
sS'trimmed'
p8013
I8011
sS'brontosaurus'
p8014
I6092
sS'promise'
p8015
I8314
sS'cursive'
p8016
I8014
sS'bills'
p8017
I8015
sS'tray'
p8018
I8016
sS'studios'
p8019
I8017
sS'lilac'
p8020
I8018
sS'related'
p8021
I8019
sS'our'
p8022
I8020
sS'out'
p8023
I8021
sS'category'
p8024
I8022
sS'goddess'
p8025
I7219
sS'chaos'
p8026
I8024
sS'settlement'
p8027
I8025
sS'vcr'
p8028
I8026
sS'thrifty'
p8029
I8027
sS'integrated'
p8030
I6206
sS'dictionary'
p8031
I8030
sS'molly'
p8032
I8031
sS'york'
p8033
I6243
sS'dumpster'
p8034
I8033
sS'implode'
p8035
I8034
sS'gerbil'
p8036
I8035
sS'kipper'
p8037
I8036
sS'organic'
p8038
I8037
sS'g'
p8039
I8038
sS'conversation'
p8040
I8039
sS'calvary'
p8041
I8040
sS'cain'
p8042
I6306
sS'sew'
p8043
I8042
sS'bouquet'
p8044
I8043
sS'vases'
p8045
I8044
sS'realtors'
p8046
I8045
sS'echo'
p8047
I8046
sS'bonnet'
p8048
I8047
sS'umbrellas'
p8049
I8048
sS'twelves'
p8050
I8049
sS'droop'
p8051
I6373
sS'priority'
p8052
I6389
sS'their'
p8053
I8052
sS'wasps'
p8054
I8054
sS'siam'
p8055
I8055
sS'boil'
p8056
I8056
sS'seminars'
p8057
I8057
sS'shell'
p8058
I8058
sS'shelf'
p8059
I7181
sS'shallow'
p8060
I8060
sS'dreadlocks'
p8061
I8061
sS'regards'
p8062
I8062
sS'july'
p8063
I8063
sS'institution'
p8064
I8064
sS'remember'
p8065
I8065
sS'cowpoke'
p8066
I8066
sS'holland'
p8067
I8067
sS'patients'
p8068
I8068
sS'dynamo'
p8069
I8069
sS'sculpture'
p8070
I8070
sS'clip'
p8071
I8071
sS'violets'
p8072
I8072
sS'fowl'
p8073
I8073
sS'splatter'
p8074
I8074
sS'sidewalk'
p8075
I8075
sS'agronomy'
p8076
I8076
sS'ringed'
p8077
I8077
sS'catholic'
p8078
I8078
sS'angle'
p8079
I8079
sS'rearranged'
p8080
I8080
sS'rout'
p8081
I8081
sS'agency'
p8082
I8082
sS'trespassing'
p8083
I8083
sS'which'
p8084
I8084
sS'trivia'
p8085
I8085
sS'pharmacist'
p8086
I8086
sS'divers'
p8087
I6613
sS'optometry'
p8088
I8088
sS'combat'
p8089
I6630
sS'knees'
p8090
I6696
sS'petrol'
p8091
I8091
sS'who'
p8092
I8092
sS'digestive'
p8093
I8093
sS'spacesuit'
p8094
I8094
sS'class'
p8095
I6673
sS'clasp'
p8096
I8096
sS'spirits'
p8097
I8097
sS'polyester'
p8098
I6680
sS'dent'
p8099
I8099
sS'pipe'
p8100
I8100
sS'yum'
p8101
I8101
sS'gain'
p8102
I2974
sS'balding'
p8103
I8103
sS'chances'
p8104
I8104
sS'stove'
p8105
I8105
sS'spanking'
p8106
I8106
sS'longevity'
p8107
I8107
sS'sonnet'
p8108
I6852
sS'democrats'
p8109
I8109
sS'chicken'
p8110
I5864
sS'debate'
p8111
I8111
sS'highest'
p8112
I3398
sS'mugs'
p8113
I8113
sS'eat'
p8114
I8114
sS'sunflowers'
p8115
I6807
sS'combo'
p8116
I8116
sS'herald'
p8117
I8117
sS'piano'
p8118
I8118
sS'thousands'
p8119
I6823
sS'cube'
p8120
I8120
sS'topple'
p8121
I8121
sS'watching'
p8122
I6836
sS'dope'
p8123
I8123
sS'cubs'
p8124
I8124
sS'words'
p8125
I6853
sS'bronco'
p8126
I8126
sS'chips'
p8127
I6860
sS'donate'
p8128
I8128
sS'married'
p8129
I8129
sS'employee'
p8130
I6816
sS'cleavage'
p8131
I8131
sS'generations'
p8132
I8132
sS'view'
p8133
I8133
sS'rafts'
p8134
I7226
sS'ogre'
p8135
I8135
sS'hymnal'
p8136
I8136
sS'module'
p8137
I8137
sS'signed'
p8138
I8138
sS'buzzed'
p8139
I8139
sS'closer'
p8140
I8140
sS'still'
p8141
I8141
sS'closet'
p8142
I8142
sS'superb'
p8143
I6995
sS'genius'
p8144
I8144
sS'viper'
p8145
I8145
sS'closed'
p8146
I8146
sS'pants'
p8147
I7024
sS'publishers'
p8148
I8148
sS'ability'
p8149
I7035
sS'opening'
p8150
I8150
sS'joy'
p8151
I8151
sS'huts'
p8152
I8152
sS'job'
p8153
I8153
sS'jog'
p8154
I8154
sS'stucco'
p8155
I8155
sS'april'
p8156
I8156
sS'grain'
p8157
I8157
sS'auctions'
p8158
I8158
sS'safely'
p8159
I8159
sS'grounds'
p8160
I8160
sS'tunisia'
p8161
I7162
sS'walk'
p8162
I8162
sS'packaging'
p8163
I8163
sS'subscribe'
p8164
I8164
sS'heredity'
p8165
I8165
sS'polka'
p8166
I8166
sS'respect'
p8167
I3143
sS'zinc'
p8168
I8168
sS'motorbike'
p8169
I8169
sS'cavities'
p8170
I8170
sS'hindu'
p8171
I8171
sS'hunters'
p8172
I8172
sS'grindstone'
p8173
I8173
sS'bbc'
p8174
I3457
sS'charts'
p8175
I8175
sS'reindeer'
p8176
I8176
sS'bbs'
p8177
I8177
sS'naples'
p8178
I8178
sS'bbq'
p8179
I8179
sS'traveling'
p8180
I8180
sS'mike'
p8181
I8181
sS'nickel'
p8182
I8182
sS'painted'
p8183
I8183
sS'crappy'
p8184
I8184
sS'improved'
p8185
I8185
sS'reeves'
p8186
I8186
sS'painter'
p8187
I7317
sS'abandoned'
p8188
I8188
sS'corset'
p8189
I8189
sS'norway'
p8190
I8190
sS'vanilla'
p8191
I7336
sS'aloe'
p8192
I5476
sS'cursor'
p8193
I3331
sS'wild'
p8194
I8194
sS'rename'
p8195
I8195
sS'jehovah'
p8196
I7376
sS'mutant'
p8197
I8197
sS'disapprove'
p8198
I8198
sS'rooster'
p8199
I7396
sS'gothic'
p8200
I8200
sS'dual'
p8201
I8201
sS'education'
p8202
I8202
sS'vintage'
p8203
I8203
sS'buddhist'
p8204
I7429
sS'cross'
p8205
I8205
sS'mcclellan'
p8206
I8206
sS'member'
p8207
I8207
sS'unity'
p8208
I8208
sS'improves'
p8209
I3159
sS'largest'
p8210
I8210
sS'inch'
p8211
I8211
sS'gizmo'
p8212
I8349
sS'tomatoes'
p8213
I8212
sS'gamblers'
p8214
I8213
sS'succulent'
p8215
I8214
sS'slave'
p8216
I8215
sS'diploma'
p8217
I8216
sS'octagon'
p8218
I8217
sS'beast'
p8219
I8218
sS'student'
p8220
I8219
sS'pestle'
p8221
I8220
sS'pedal'
p8222
I8221
sS'whale'
p8223
I8222
sS'collar'
p8224
I8223
sS'celtic'
p8225
I8224
sS'gutter'
p8226
I8225
sS'approve'
p8227
I8226
sS'contest'
p8228
I8227
sS'fighting'
p8229
I8228
sS'spectator'
p8230
I8229
sS'english'
p8231
I8230
sS'flint'
p8232
I8231
sS'rocker'
p8233
I7575
sS'cameo'
p8234
I8233
sS'rocket'
p8235
I8234
sS'camel'
p8236
I8235
sS'boot'
p8237
I8353
sS'fishing'
p8238
I8237
sS'happiness'
p8239
I8238
sS'rapid'
p8240
I8239
sS'console'
p8241
I8240
sS'panther'
p8242
I8241
sS'guts'
p8243
I7641
sS'smith'
p8244
I3122
sS'book'
p8245
I8355
sS'jars'
p8246
I8245
sS'ski'
p8247
I8246
sS'earthquakes'
p8248
I8247
sS'knob'
p8249
I8248
sS'branch'
p8250
I8357
sS'myth'
p8251
I8250
sS'wagon'
p8252
I8251
sS'know'
p8253
I879
sS'facial'
p8254
I7718
sS'press'
p8255
I8254
sS'doughnut'
p8256
I8255
sS'helpful'
p8257
I8256
sS'miami'
p8258
I8257
sS'loser'
p8259
I8258
sS'tennessee'
p8260
I8259
sS'james'
p8261
I2749
sS'wonders'
p8262
I8261
sS'alabama'
p8263
I8262
sS'because'
p8264
I8263
sS'scepter'
p8265
I8264
sS'tumble'
p8266
I7778
sS'scared'
p8267
I8266
sS'church'
p8268
I8267
sS'birthmark'
p8269
I7783
sS'growth'
p8270
I8269
sS'empire'
p8271
I8270
sS'employment'
p8272
I8271
sS'leaden'
p8273
I8272
sS'leaf'
p8274
I8273
sS'pompom'
p8275
I7820
sS'outfitters'
p8276
I7822
sS'leak'
p8277
I8276
sS'miner'
p8278
I7831
sS'leap'
p8279
I8278
sS'campfire'
p8280
I8279
sS'earrings'
p8281
I4183
sS'leader'
p8282
I8281
sS'trout'
p8283
I8282
sS'birthday'
p8284
I8283
sS'poets'
p8285
I8284
sS'mitt'
p8286
I8285
sS'slut'
p8287
I8286
sS'wesley'
p8288
I8287
sS'pasta'
p8289
I8288
sS'kitsch'
p8290
I7698
sS'throne'
p8291
I8290
sS'pike'
p8292
I8291
sS'rare'
p8293
I8292
sS'getting'
p8294
I2018
sS'column'
p8295
I8294
sS'universe'
p8296
I8295
sS'pocketbook'
p8297
I8296
sS'shipping'
p8298
I8297
sS'fear'
p8299
I8110
sS'camels'
p8300
I7948
sS'sweat'
p8301
I8300
sS'perky'
p8302
I8301
sS'udder'
p8303
I8302
sS'commons'
p8304
I8303
sS'greensboro'
p8305
I8304
sS'warranty'
p8306
I8305
sS'owl'
p8307
I8306
sS'own'
p8308
I8307
sS'boggy'
p8309
I8308
sS'gymnastic'
p8310
I7978
sS'travelers'
p8311
I8310
sS'emotive'
p8312
I8311
sS'headphone'
p8313
I8312
sS'weather'
p8314
I8313
sS'hotline'
p8315
I8013
sS'brush'
p8316
I8315
sS'birdhouse'
p8317
I8316
sS'yankee'
p8318
I8028
sS'rowboat'
p8319
I8318
sS'nuke'
p8320
I8319
sS'van'
p8321
I8320
sS'cinderella'
p8322
I8321
sS'spiral'
p8323
I8322
sS'kidding'
p8324
I8323
sS'uniting'
p8325
I8324
sS'feline'
p8326
I8325
sS'dynamite'
p8327
I8326
sS'mailer'
p8328
I8327
sS'nourish'
p8329
I8328
sS'limo'
p8330
I8329
sS'funds'
p8331
I8330
sS'volume'
p8332
I8331
sS'wight'
p8333
I8332
sS'nassau'
p8334
I8333
sS'squeeze'
p8335
I8334
sS'made'
p8336
I8335
sS'temp'
p8337
I8336
sS'whether'
p8338
I8337
sS'daffodil'
p8339
I8338
sS'record'
p8340
I8339
sS'below'
p8341
I8340
sS'graphite'
p8342
I8341
sS'cake'
p8343
I8342
sS'stirring'
p8344
I8343
sS'goodness'
p8345
I8344
sS'et'
p8346
I8345
sS'theatre'
p8347
I8346
sS'reflecting'
p8348
I8347
sS'naming'
p8349
I8348
sS'champion'
p8350
I2499
sS'diplomat'
p8351
I8350
sS'diplomas'
p8352
I8351
sS'incredible'
p8353
I8352
sS'percent'
p8354
I8236
sS'illinois'
p8355
I8354
sS'other'
p8356
I8244
sS'es'
p8357
I8356
sS'sick'
p8358
I8249
sS'rial'
p8359
I8358
sS'contacting'
p8360
I8359
sS'conclusion'
p8361
I8360
sS'lance'
p8362
I8361
sS'junk'
p8363
I8362
sS'june'
p8364
I8363
sS'knee'
p8365
I8364
sS'crete'
p8366
I8365
sS'cliff'
p8367
I8366
sS'sass'
p8368
I8367
sS'ranks'
p8369
I8368
sS'jewel'
p8370
I8369
sS'nasals'
p8371
I8370
sS'sash'
p8372
I8371
s.